	.file	"affineenc.c"
	.intel_syntax noprefix
	.text
Ltext0:
	.globl	_answer
	.data
	.align 4
_answer:
	.ascii "qxbxpluxvwhuzjct\0"
	.def	___main;	.scl	2;	.type	32;	.endef
	.section .rdata,"dr"
LC0:
	.ascii "please input a string:\0"
LC1:
	.ascii "%s\0"
LC2:
	.ascii "ok, you really know\0"
LC3:
	.ascii "sorry\0"
LC4:
	.ascii "pause\0"
	.text
	.globl	_main
	.def	_main;	.scl	2;	.type	32;	.endef
_main:
LFB14:
	.file 1 "O:/BUPT-SCSS/Courses/ASM_and_Reverse_Engineering/Programs/C_C++/5_cipher_reverse/affine/affineenc.c"
	.loc 1 9 1
	.cfi_startproc
	push	ebp
	.cfi_def_cfa_offset 8
	.cfi_offset 5, -8
	mov	ebp, esp
	.cfi_def_cfa_register 5
	push	edi
	and	esp, -16
	sub	esp, 144
	.cfi_offset 7, -12
	.loc 1 9 1
	call	___main
LVL0:
	.loc 1 10 9
	mov	DWORD PTR [esp+136], 3
	.loc 1 11 9
	mov	DWORD PTR [esp+132], 7
	.loc 1 12 9
	mov	DWORD PTR [esp+128], 9
	.loc 1 13 10
	lea	edx, [esp+20]
	mov	ecx, 25
	mov	eax, 0
	mov	edi, edx
	rep stosd
	.loc 1 17 5
	mov	DWORD PTR [esp], OFFSET FLAT:LC0
	call	_puts
	.loc 1 18 5
	lea	eax, [esp+20]
	mov	DWORD PTR [esp+4], eax
	mov	DWORD PTR [esp], OFFSET FLAT:LC1
	call	_scanf
	.loc 1 20 11
	lea	eax, [esp+20]
	mov	DWORD PTR [esp], eax
	call	_strlen
	.loc 1 20 9
	mov	DWORD PTR [esp+124], eax
	.loc 1 21 10
	mov	DWORD PTR [esp+140], 0
	.loc 1 21 5
	jmp	L2
L6:
	.loc 1 22 17
	lea	edx, [esp+20]
	mov	eax, DWORD PTR [esp+140]
	add	eax, edx
	mov	al, BYTE PTR [eax]
	.loc 1 22 11
	cmp	al, 96
	jle	L3
	.loc 1 22 31 discriminator 1
	lea	edx, [esp+20]
	mov	eax, DWORD PTR [esp+140]
	add	eax, edx
	mov	al, BYTE PTR [eax]
	.loc 1 22 24 discriminator 1
	cmp	al, 122
	jle	L4
L3:
	.loc 1 23 20
	mov	eax, -1
	jmp	L11
L4:
	.loc 1 21 19 discriminator 2
	inc	DWORD PTR [esp+140]
L2:
	.loc 1 21 5 discriminator 1
	mov	eax, DWORD PTR [esp+140]
	cmp	eax, DWORD PTR [esp+124]
	jl	L6
	.loc 1 26 10
	mov	DWORD PTR [esp+140], 0
	.loc 1 26 5
	jmp	L7
L8:
	.loc 1 27 19 discriminator 3
	lea	edx, [esp+20]
	mov	eax, DWORD PTR [esp+140]
	add	eax, edx
	mov	al, BYTE PTR [eax]
	movsx	eax, al
	.loc 1 27 13 discriminator 3
	sub	eax, 97
	mov	DWORD PTR [esp+120], eax
	.loc 1 28 21 discriminator 3
	mov	eax, DWORD PTR [esp+120]
	imul	eax, DWORD PTR [esp+136]
	mov	edx, eax
	.loc 1 28 27 discriminator 3
	mov	eax, DWORD PTR [esp+132]
	add	eax, edx
	.loc 1 28 14 discriminator 3
	mov	ecx, 26
	cdq
	idiv	ecx
	mov	DWORD PTR [esp+120], edx
	.loc 1 29 22 discriminator 3
	mov	eax, DWORD PTR [esp+120]
	add	eax, 97
	mov	dl, al
	.loc 1 29 17 discriminator 3
	lea	ecx, [esp+20]
	mov	eax, DWORD PTR [esp+140]
	add	eax, ecx
	mov	BYTE PTR [eax], dl
	.loc 1 26 19 discriminator 3
	inc	DWORD PTR [esp+140]
L7:
	.loc 1 26 5 discriminator 1
	mov	eax, DWORD PTR [esp+140]
	cmp	eax, DWORD PTR [esp+124]
	jl	L8
	.loc 1 32 5
	mov	DWORD PTR [esp+4], OFFSET FLAT:_answer
	lea	eax, [esp+20]
	mov	DWORD PTR [esp], eax
	call	_strcmp
	.loc 1 32 4
	test	eax, eax
	jne	L9
	.loc 1 33 3
	mov	DWORD PTR [esp], OFFSET FLAT:LC2
	call	_puts
	jmp	L10
L9:
	.loc 1 36 3
	mov	DWORD PTR [esp], OFFSET FLAT:LC3
	call	_puts
L10:
	.loc 1 39 2
	mov	DWORD PTR [esp], OFFSET FLAT:LC4
	call	_system
	.loc 1 41 9
	mov	eax, 0
L11:
	.loc 1 42 1 discriminator 1
	mov	edi, DWORD PTR [ebp-4]
	leave
	.cfi_restore 5
	.cfi_restore 7
	.cfi_def_cfa 4, 4
	ret
	.cfi_endproc
LFE14:
Letext0:
	.file 2 "C:/Program Files (x86)/codeblocks-20.03-32bit-mingw-32bit-nosetup/MinGW/i686-w64-mingw32/include/stdio.h"