	.file	"_firstRe.c"
	.intel_syntax noprefix
	.text
Ltext0:
	.globl	_check
	.data
	.align 32
_check:
	.ascii "GMBH.?|H11eH11eTuvez-EbzEbzVq\"~\0"
	.text
	.globl	_readInput
	.def	_readInput;	.scl	2;	.type	32;	.endef
_readInput:
LFB17:
	.file 1 "O:/BUPT-SCSS/Courses_and_research/ASM_and_Reverse_Engineering/Programs/C_C++/4_hello_reverse/_firstRe/_firstRe.c"
	.loc 1 8 35
	.cfi_startproc
	push	ebp
	.cfi_def_cfa_offset 8
	.cfi_offset 5, -8
	mov	ebp, esp
	.cfi_def_cfa_register 5
	sub	esp, 24
	.loc 1 11 9
	mov	DWORD PTR [ebp-12], 0
	.loc 1 11 2
	jmp	L2
L5:
	.loc 1 12 8
	call	_getchar
	.loc 1 12 6
	mov	BYTE PTR [ebp-13], al
	.loc 1 13 6
	cmp	BYTE PTR [ebp-13], 10
	je	L7
	.loc 1 15 6 discriminator 2
	mov	edx, DWORD PTR [ebp-12]
	mov	eax, DWORD PTR [ebp+8]
	add	edx, eax
	.loc 1 15 10 discriminator 2
	mov	al, BYTE PTR [ebp-13]
	mov	BYTE PTR [edx], al
	.loc 1 11 22 discriminator 2
	inc	DWORD PTR [ebp-12]
L2:
	.loc 1 11 2 discriminator 1
	mov	eax, DWORD PTR [ebp-12]
	cmp	eax, DWORD PTR [ebp+12]
	jl	L5
	jmp	L4
L7:
	.loc 1 14 4
	nop
L4:
	.loc 1 17 5
	mov	edx, DWORD PTR [ebp-12]
	mov	eax, DWORD PTR [ebp+8]
	add	eax, edx
	.loc 1 17 9
	mov	BYTE PTR [eax], 0
	.loc 1 18 9
	mov	eax, DWORD PTR [ebp-12]
	.loc 1 19 1
	leave
	.cfi_restore 5
	.cfi_def_cfa 4, 4
	ret
	.cfi_endproc
LFE17:
	.globl	_checkflag
	.def	_checkflag;	.scl	2;	.type	32;	.endef
_checkflag:
LFB18:
	.loc 1 21 26
	.cfi_startproc
	push	ebp
	.cfi_def_cfa_offset 8
	.cfi_offset 5, -8
	mov	ebp, esp
	.cfi_def_cfa_register 5
	sub	esp, 40
	.loc 1 22 11
	mov	DWORD PTR [esp], OFFSET FLAT:_check
	call	_strlen
	.loc 1 22 9
	mov	DWORD PTR [ebp-16], eax
	.loc 1 23 6
	mov	eax, DWORD PTR [ebp+8]
	mov	DWORD PTR [esp], eax
	call	_strlen
	mov	edx, eax
	.loc 1 23 18
	mov	eax, DWORD PTR [ebp-16]
	.loc 1 23 5
	cmp	edx, eax
	je	L9
	.loc 1 24 10
	mov	eax, 0
	jmp	L8
L9:
	.loc 1 25 9
	mov	DWORD PTR [ebp-12], 0
	.loc 1 25 2
	jmp	L11
L13:
	.loc 1 26 10
	mov	edx, DWORD PTR [ebp-12]
	mov	eax, DWORD PTR [ebp+8]
	add	eax, edx
	mov	al, BYTE PTR [eax]
	movsx	eax, al
	.loc 1 26 14
	lea	edx, [eax+1]
	.loc 1 26 26
	mov	eax, DWORD PTR [ebp-12]
	add	eax, OFFSET FLAT:_check
	mov	al, BYTE PTR [eax]
	movsx	eax, al
	.loc 1 26 6
	cmp	edx, eax
	je	L12
	.loc 1 27 11
	mov	eax, 0
	jmp	L8
L12:
	.loc 1 25 20 discriminator 2
	inc	DWORD PTR [ebp-12]
L11:
	.loc 1 25 2 discriminator 1
	mov	eax, DWORD PTR [ebp-12]
	cmp	eax, DWORD PTR [ebp-16]
	jl	L13
	.loc 1 29 5
	mov	eax, DWORD PTR [ebp-12]
	cmp	eax, DWORD PTR [ebp-16]
	jne	L14
	.loc 1 30 10
	mov	eax, 1
	jmp	L8
L14:
L8:
	.loc 1 31 1
	leave
	.cfi_restore 5
	.cfi_def_cfa 4, 4
	ret
	.cfi_endproc
LFE18:
	.def	___main;	.scl	2;	.type	32;	.endef
	.section .rdata,"dr"
LC0:
	.ascii "Please give me your input:  \0"
	.align 4
LC1:
	.ascii "\12Good job! You have successfully captured the FLAG!!!\12\0"
	.align 4
LC2:
	.ascii "\12Sorry! You might need to try it again!!!\12\0"
LC3:
	.ascii "pause\0"
	.text
	.globl	_main
	.def	_main;	.scl	2;	.type	32;	.endef
_main:
LFB19:
	.loc 1 47 12
	.cfi_startproc
	push	ebp
	.cfi_def_cfa_offset 8
	.cfi_offset 5, -8
	mov	ebp, esp
	.cfi_def_cfa_register 5
	and	esp, -16
	sub	esp, 80
	.loc 1 47 12
	call	___main
LVL0:
	.loc 1 51 2
	mov	DWORD PTR [esp], OFFSET FLAT:LC0
	call	_printf
	.loc 1 52 2
	mov	DWORD PTR [esp+4], 50
	lea	eax, [esp+30]
	mov	DWORD PTR [esp], eax
	call	_readInput
	.loc 1 53 6
	lea	eax, [esp+30]
	mov	DWORD PTR [esp], eax
	call	_checkflag
	.loc 1 53 5
	test	eax, eax
	je	L16
	.loc 1 54 3
	mov	DWORD PTR [esp], OFFSET FLAT:LC1
	call	_puts
	jmp	L17
L16:
	.loc 1 57 3
	mov	DWORD PTR [esp], OFFSET FLAT:LC2
	call	_puts
L17:
	.loc 1 59 2
	mov	DWORD PTR [esp], OFFSET FLAT:LC3
	call	_system
	.loc 1 60 9
	mov	eax, 0
	.loc 1 61 1
	leave
	.cfi_restore 5
	.cfi_def_cfa 4, 4
	ret
	.cfi_endproc
LFE19:
Letext0:
	.file 2 "C:/Program Files (x86)/CodeBlocks/MinGW/i686-w64-mingw32/include/stdio.h"
	.file 3 "C:/Program Files (x86)/CodeBlocks/MinGW/i686-w64-mingw32/include/crtdefs.h"
	.file 4 "C:/Program Files (x86)/CodeBlocks/MinGW/i686-w64-mingw32/include/stdlib.h"
	.file 5 "C:/Program Files (x86)/CodeBlocks/MinGW/i686-w64-mingw32/include/malloc.h"