	.file	"main.c"
	.intel_syntax noprefix
	.text
Ltext0:
	.def	___main;	.scl	2;	.type	32;	.endef
	.section .rdata,"dr"
LC0:
	.ascii "please input your flag:\12\0"
LC1:
	.ascii "%s\0"
	.align 4
LC2:
	.ascii "\12Invalid ASCII character detected!\12\0"
LC3:
	.ascii "pause\0"
	.align 4
LC4:
	.ascii "45c6c64ffd31a750bcb2e150519f1963e5424bafd380637cff33075c25d35334\0"
LC5:
	.ascii "\12well done!\12\12\0"
LC6:
	.ascii "\12Sorry to say \"wrong\"!\12\12\0"
	.text
	.globl	_main
	.def	_main;	.scl	2;	.type	32;	.endef
_main:
LFB13:
	.file 1 "O:/BUPT-SCSS/Courses/ASM_and_Reverse_Engineering/Programs/C_C++/5_cipher_reverse/sha256/main.c"
	.loc 1 5 1
	.cfi_startproc
	push	ebp
	.cfi_def_cfa_offset 8
	.cfi_offset 5, -8
	mov	ebp, esp
	.cfi_def_cfa_register 5
	and	esp, -16
	sub	esp, 1152
	.loc 1 5 1
	call	___main
LVL0:
	.loc 1 13 5
	mov	DWORD PTR [esp+8], 32
	mov	DWORD PTR [esp+4], 0
	lea	eax, [esp+24]
	mov	DWORD PTR [esp], eax
	call	_memset
	.loc 1 16 5
	mov	DWORD PTR [esp], OFFSET FLAT:LC0
	call	_printf
	.loc 1 17 5
	lea	eax, [esp+88]
	mov	DWORD PTR [esp+4], eax
	mov	DWORD PTR [esp], OFFSET FLAT:LC1
	call	_scanf
	.loc 1 18 16
	lea	eax, [esp+88]
	mov	DWORD PTR [esp], eax
	call	_strlen
	.loc 1 18 14
	mov	DWORD PTR [esp+1144], eax
	.loc 1 20 8
	cmp	DWORD PTR [esp+1144], 4
	jbe	L2
LBB2:
LBB3:
	.loc 1 21 18
	mov	DWORD PTR [esp+1148], 0
	.loc 1 21 9
	jmp	L3
L8:
	.loc 1 23 22
	lea	edx, [esp+88]
	mov	eax, DWORD PTR [esp+1148]
	add	eax, edx
	mov	al, BYTE PTR [eax]
	.loc 1 23 16
	cmp	al, 96
	jbe	L4
	.loc 1 23 39 discriminator 2
	lea	edx, [esp+88]
	mov	eax, DWORD PTR [esp+1148]
	add	eax, edx
	mov	al, BYTE PTR [eax]
	.loc 1 23 32 discriminator 2
	cmp	al, 122
	jbe	L5
L4:
	.loc 1 23 58 discriminator 3
	lea	edx, [esp+88]
	mov	eax, DWORD PTR [esp+1148]
	add	eax, edx
	mov	al, BYTE PTR [eax]
	.loc 1 23 50 discriminator 3
	cmp	al, 64
	jbe	L6
	.loc 1 23 75 discriminator 4
	lea	edx, [esp+88]
	mov	eax, DWORD PTR [esp+1148]
	add	eax, edx
	mov	al, BYTE PTR [eax]
	.loc 1 23 68 discriminator 4
	cmp	al, 90
	jbe	L5
L6:
LBB4:
	.loc 1 24 17
	mov	DWORD PTR [esp], OFFSET FLAT:LC2
	call	_puts
	.loc 1 26 17
	mov	DWORD PTR [esp], OFFSET FLAT:LC3
	call	_system
	.loc 1 27 24
	mov	eax, 0
	jmp	L10
L5:
LBE4:
	.loc 1 21 39 discriminator 2
	inc	DWORD PTR [esp+1148]
L3:
	.loc 1 21 27 discriminator 1
	mov	eax, DWORD PTR [esp+1148]
	.loc 1 21 9 discriminator 1
	cmp	DWORD PTR [esp+1144], eax
	ja	L8
LBE3:
	.loc 1 31 9
	mov	DWORD PTR [esp+8], 5
	lea	eax, [esp+88]
	mov	DWORD PTR [esp+4], eax
	lea	eax, [esp+1112]
	mov	DWORD PTR [esp], eax
	call	_strncpy
	.loc 1 32 9
	mov	DWORD PTR [esp+8], 4
	lea	eax, [esp+1112]
	mov	DWORD PTR [esp+4], eax
	lea	eax, [esp+24]
	mov	DWORD PTR [esp], eax
	call	_sha256
LBB5:
	.loc 1 34 7
	mov	DWORD PTR [esp+8], 64
	mov	DWORD PTR [esp+4], OFFSET FLAT:LC4
	lea	eax, [esp+24]
	mov	DWORD PTR [esp], eax
	call	_strncmp
	.loc 1 34 5
	test	eax, eax
	jne	L9
	.loc 1 35 4
	mov	DWORD PTR [esp], OFFSET FLAT:LC5
	call	_printf
	jmp	L2
L9:
	.loc 1 37 4
	mov	DWORD PTR [esp], OFFSET FLAT:LC6
	call	_printf
L2:
LBE5:
LBE2:
	.loc 1 40 5
	mov	DWORD PTR [esp], OFFSET FLAT:LC3
	call	_system
	.loc 1 41 12
	mov	eax, 0
L10:
	.loc 1 42 1 discriminator 1
	leave
	.cfi_restore 5
	.cfi_def_cfa 4, 4
	ret
	.cfi_endproc
LFE13:
Letext0:
	.file 2 "C:/Program Files (x86)/codeblocks-20.03-32bit-mingw-32bit-nosetup/MinGW/i686-w64-mingw32/include/stdio.h"