	.file	"_func.cpp"
	.intel_syntax noprefix
	.text
Ltext0:
	.globl	__Z9temp_funcPc
	.def	__Z9temp_funcPc;	.scl	2;	.type	32;	.endef
__Z9temp_funcPc:
LFB46:
	.file 1 "O:/BUPT-SCSS/Courses_and_research/ASM_and_Reverse_Engineering/Programs/C_C++/9_obfuscation/smc/dump_func/_func.cpp"
	.loc 1 4 26
	.cfi_startproc
	push	ebp
	.cfi_def_cfa_offset 8
	.cfi_offset 5, -8
	mov	ebp, esp
	.cfi_def_cfa_register 5
	.loc 1 5 14
	mov	eax, DWORD PTR [ebp+8]
	mov	al, BYTE PTR [eax]
	.loc 1 5 5
	cmp	al, 115
	je	L2
	.loc 1 6 16
	mov	eax, 1
	jmp	L3
L2:
	.loc 1 7 20
	mov	eax, DWORD PTR [ebp+8]
	inc	eax
	mov	al, BYTE PTR [eax]
	.loc 1 7 10
	cmp	al, 109
	je	L4
	.loc 1 8 16
	mov	eax, 1
	jmp	L3
L4:
	.loc 1 9 20
	mov	eax, DWORD PTR [ebp+8]
	add	eax, 2
	mov	al, BYTE PTR [eax]
	.loc 1 9 10
	cmp	al, 105
	je	L5
	.loc 1 10 16
	mov	eax, 1
	jmp	L3
L5:
	.loc 1 11 20
	mov	eax, DWORD PTR [ebp+8]
	add	eax, 3
	mov	al, BYTE PTR [eax]
	.loc 1 11 10
	cmp	al, 108
	je	L6
	.loc 1 12 16
	mov	eax, 1
	jmp	L3
L6:
	.loc 1 13 20
	mov	eax, DWORD PTR [ebp+8]
	add	eax, 4
	mov	al, BYTE PTR [eax]
	.loc 1 13 10
	cmp	al, 101
	je	L7
	.loc 1 14 16
	mov	eax, 1
	jmp	L3
L7:
	.loc 1 16 16
	mov	eax, 0
L3:
	.loc 1 17 1
	pop	ebp
	.cfi_restore 5
	.cfi_def_cfa 4, 4
	ret
	.cfi_endproc
LFE46:
	.def	___main;	.scl	2;	.type	32;	.endef
	.section .rdata,"dr"
LC0:
	.ascii "anchor-1\0"
LC1:
	.ascii "anchor-2\0"
LC2:
	.ascii "Please try again...\12\0"
LC3:
	.ascii "Congratulations!\12\0"
LC4:
	.ascii "pause\0"
	.text
	.globl	_main
	.def	_main;	.scl	2;	.type	32;	.endef
_main:
LFB47:
	.loc 1 19 12
	.cfi_startproc
	push	ebp
	.cfi_def_cfa_offset 8
	.cfi_offset 5, -8
	mov	ebp, esp
	.cfi_def_cfa_register 5
	and	esp, -16
	sub	esp, 32
	.loc 1 19 12
	call	___main
LVL0:
	.loc 1 21 10
	mov	DWORD PTR [esp+22], 1818848627
	mov	WORD PTR [esp+26], 101
	.loc 1 23 11
	mov	DWORD PTR [esp], OFFSET FLAT:LC0
	call	_puts
	.loc 1 24 23
	lea	eax, [esp+22]
	mov	DWORD PTR [esp], eax
	call	__Z9temp_funcPc
	mov	DWORD PTR [esp+28], eax
	.loc 1 25 11
	mov	DWORD PTR [esp], OFFSET FLAT:LC1
	call	_puts
	.loc 1 28 5
	cmp	DWORD PTR [esp+28], 0
	je	L9
	.loc 1 29 13
	mov	DWORD PTR [esp], OFFSET FLAT:LC2
	call	_puts
	jmp	L10
L9:
	.loc 1 31 13
	mov	DWORD PTR [esp], OFFSET FLAT:LC3
	call	_puts
L10:
	.loc 1 33 11
	mov	DWORD PTR [esp], OFFSET FLAT:LC4
	call	_system
	.loc 1 34 12
	mov	eax, 0
	.loc 1 35 1
	leave
	.cfi_restore 5
	.cfi_def_cfa 4, 4
	ret
	.cfi_endproc
LFE47:
Letext0:
	.file 2 "C:/Program Files (x86)/CodeBlocks/MinGW/i686-w64-mingw32/include/stdio.h"
	.file 3 "C:/Program Files (x86)/CodeBlocks/MinGW/i686-w64-mingw32/include/crtdefs.h"
	.file 4 "C:/Program Files (x86)/CodeBlocks/MinGW/lib/gcc/i686-w64-mingw32/8.1.0/include/c++/cstdlib"
	.file 5 "C:/Program Files (x86)/CodeBlocks/MinGW/lib/gcc/i686-w64-mingw32/8.1.0/include/c++/bits/std_abs.h"
	.file 6 "C:/Program Files (x86)/CodeBlocks/MinGW/lib/gcc/i686-w64-mingw32/8.1.0/include/c++/i686-w64-mingw32/bits/c++config.h"
	.file 7 "C:/Program Files (x86)/CodeBlocks/MinGW/i686-w64-mingw32/include/stdlib.h"
	.file 8 "C:/Program Files (x86)/CodeBlocks/MinGW/i686-w64-mingw32/include/malloc.h"
	.file 9 "C:/Program Files (x86)/CodeBlocks/MinGW/lib/gcc/i686-w64-mingw32/8.1.0/include/c++/stdlib.h"
	.file 10 "<built-in>"