	.file	"main.c"
	.intel_syntax noprefix
	.text
Ltext0:
	.comm	_S, 64, 5
	.comm	_T, 256, 5
	.def	___main;	.scl	2;	.type	32;	.endef
	.section .rdata,"dr"
LC0:
	.ascii "Please input your flag:\0"
LC1:
	.ascii "%s\0"
	.align 4
LC2:
	.ascii "\12Invalid ASCII character detected!\12\0"
LC3:
	.ascii "pause\0"
	.align 4
LC4:
	.ascii "23d4a52c56357cb705137656744dc055\0"
LC5:
	.ascii "\12well done!\12\0"
LC6:
	.ascii "\12Sorry to say \"wrong\"!\12\0"
	.text
	.globl	_main
	.def	_main;	.scl	2;	.type	32;	.endef
_main:
LFB17:
	.file 1 "O:/BUPT-SCSS/Courses_and_research/ASM_and_Reverse_Engineering/Programs/C_C++/5_cipher_reverse/md5/main.c"
	.loc 1 3 11
	.cfi_startproc
	push	ebp
	.cfi_def_cfa_offset 8
	.cfi_offset 5, -8
	mov	ebp, esp
	.cfi_def_cfa_register 5
	push	edi
	and	esp, -16
	sub	esp, 1088
	.cfi_offset 7, -12
	.loc 1 3 11
	call	___main
LVL0:
	.loc 1 5 10
	lea	edx, [esp+1047]
	mov	ecx, 33
	mov	al, 0
	mov	edi, edx
	rep stosb
	.loc 1 6 7
	lea	edx, [esp+23]
	mov	ecx, 256
	mov	eax, 0
	mov	edi, edx
	rep stosd
	.loc 1 7 7
	mov	DWORD PTR [esp+18], 0
	mov	BYTE PTR [esp+22], 0
	.loc 1 10 2
	mov	DWORD PTR [esp], OFFSET FLAT:LC0
	call	_puts
	.loc 1 11 5
	lea	eax, [esp+23]
	mov	DWORD PTR [esp+4], eax
	mov	DWORD PTR [esp], OFFSET FLAT:LC1
	call	_scanf
	.loc 1 13 21
	lea	eax, [esp+23]
	mov	DWORD PTR [esp], eax
	call	_strlen
	mov	DWORD PTR [esp+1080], eax
	.loc 1 15 4
	cmp	DWORD PTR [esp+1080], 4
	jbe	L2
	.loc 1 16 8
	mov	DWORD PTR [esp+1084], 0
	.loc 1 16 3
	jmp	L3
L8:
	.loc 1 17 13
	lea	edx, [esp+23]
	mov	eax, DWORD PTR [esp+1084]
	add	eax, edx
	mov	al, BYTE PTR [eax]
	.loc 1 17 7
	cmp	al, 96
	jle	L4
	.loc 1 17 30 discriminator 2
	lea	edx, [esp+23]
	mov	eax, DWORD PTR [esp+1084]
	add	eax, edx
	mov	al, BYTE PTR [eax]
	.loc 1 17 23 discriminator 2
	cmp	al, 122
	jle	L5
L4:
	.loc 1 17 49 discriminator 3
	lea	edx, [esp+23]
	mov	eax, DWORD PTR [esp+1084]
	add	eax, edx
	mov	al, BYTE PTR [eax]
	.loc 1 17 41 discriminator 3
	cmp	al, 64
	jle	L6
	.loc 1 17 66 discriminator 4
	lea	edx, [esp+23]
	mov	eax, DWORD PTR [esp+1084]
	add	eax, edx
	mov	al, BYTE PTR [eax]
	.loc 1 17 59 discriminator 4
	cmp	al, 90
	jle	L5
L6:
	.loc 1 18 5
	mov	DWORD PTR [esp], OFFSET FLAT:LC2
	call	_puts
	.loc 1 20 5
	mov	DWORD PTR [esp], OFFSET FLAT:LC3
	call	_system
	.loc 1 21 12
	mov	eax, 0
	jmp	L10
L5:
	.loc 1 16 29 discriminator 2
	inc	DWORD PTR [esp+1084]
L3:
	.loc 1 16 14 discriminator 1
	lea	eax, [esp+23]
	mov	DWORD PTR [esp], eax
	call	_strlen
	mov	edx, eax
	.loc 1 16 13 discriminator 1
	mov	eax, DWORD PTR [esp+1084]
	.loc 1 16 3 discriminator 1
	cmp	edx, eax
	ja	L8
	.loc 1 25 3
	mov	DWORD PTR [esp+8], 4
	lea	eax, [esp+23]
	mov	DWORD PTR [esp+4], eax
	lea	eax, [esp+18]
	mov	DWORD PTR [esp], eax
	call	_strncpy
	.loc 1 28 3
	mov	DWORD PTR [esp+8], 4
	lea	eax, [esp+18]
	mov	DWORD PTR [esp+4], eax
	lea	eax, [esp+1047]
	mov	DWORD PTR [esp], eax
	call	_md5_calc
	.loc 1 31 7
	mov	DWORD PTR [esp+8], 32
	mov	DWORD PTR [esp+4], OFFSET FLAT:LC4
	lea	eax, [esp+1047]
	mov	DWORD PTR [esp], eax
	call	_strncmp
	.loc 1 31 5
	test	eax, eax
	jne	L9
	.loc 1 32 4
	mov	DWORD PTR [esp], OFFSET FLAT:LC5
	call	_puts
	jmp	L2
L9:
	.loc 1 34 4
	mov	DWORD PTR [esp], OFFSET FLAT:LC6
	call	_puts
L2:
	.loc 1 37 2
	mov	DWORD PTR [esp], OFFSET FLAT:LC3
	call	_system
	.loc 1 38 9
	mov	eax, 0
L10:
	.loc 1 39 1 discriminator 1
	mov	edi, DWORD PTR [ebp-4]
	leave
	.cfi_restore 5
	.cfi_restore 7
	.cfi_def_cfa 4, 4
	ret
	.cfi_endproc
LFE17:
Letext0:
	.file 2 "C:/Program Files (x86)/CodeBlocks/MinGW/i686-w64-mingw32/include/stdio.h"
	.file 3 "C:/Program Files (x86)/CodeBlocks/MinGW/i686-w64-mingw32/include/crtdefs.h"
	.file 4 "C:/Program Files (x86)/CodeBlocks/MinGW/i686-w64-mingw32/include/stdlib.h"
	.file 5 "C:/Program Files (x86)/CodeBlocks/MinGW/i686-w64-mingw32/include/malloc.h"
	.file 6 "O:/BUPT-SCSS/Courses_and_research/ASM_and_Reverse_Engineering/Programs/C_C++/5_cipher_reverse/md5/md5.h"