	.file	"main.cpp"
	.intel_syntax noprefix
	.text
Ltext0:
	.section .rdata,"dr"
__ZStL19piecewise_construct:
	.space 1
	.text
	.def	__ZL5scanfPKcz;	.scl	3;	.type	32;	.endef
__ZL5scanfPKcz:
LFB488:
	.file 1 "C:/Program Files (x86)/CodeBlocks/MinGW/i686-w64-mingw32/include/stdio.h"
	.loc 1 279 1
	.cfi_startproc
	push	ebp
	.cfi_def_cfa_offset 8
	.cfi_offset 5, -8
	mov	ebp, esp
	.cfi_def_cfa_register 5
	push	ebx
	sub	esp, 36
	.cfi_offset 3, -12
	.loc 1 281 53
	lea	eax, [ebp+12]
	mov	DWORD PTR [ebp-16], eax
	.loc 1 282 29
	mov	ebx, DWORD PTR [ebp-16]
	mov	DWORD PTR [esp], 0
	mov	eax, DWORD PTR __imp____acrt_iob_func
	call	eax
LVL0:
	mov	DWORD PTR [esp+8], ebx
	mov	edx, DWORD PTR [ebp+8]
	mov	DWORD PTR [esp+4], edx
	mov	DWORD PTR [esp], eax
	call	___mingw_vfscanf
	mov	DWORD PTR [ebp-12], eax
	.loc 1 284 10
	mov	eax, DWORD PTR [ebp-12]
	.loc 1 285 1
	add	esp, 36
	pop	ebx
	.cfi_restore 3
	pop	ebp
	.cfi_restore 5
	.cfi_def_cfa 4, 4
	ret
	.cfi_endproc
LFE488:
.lcomm __ZStL8__ioinit,1,1
	.globl	_dll
	.data
	.align 32
_dll:
	.ascii "C:\\Users\\Dr. Shengli Pan\\Desktop\\hook_2\\INJECTION.dll\0"
	.globl	_hWnd
	.bss
	.align 4
_hWnd:
	.space 4
	.globl	_hWinmine
	.align 4
_hWinmine:
	.space 4
	.section .rdata,"dr"
LC0:
	.ascii "ntdll.dll\0"
LC1:
	.ascii "RtlCreateUserThread\0"
	.text
	.globl	__Z19RtlCreateUserThreadPvS_
	.def	__Z19RtlCreateUserThreadPvS_;	.scl	2;	.type	32;	.endef
__Z19RtlCreateUserThreadPvS_:
LFB2035:
	.file 2 "O:/BUPT-SCSS/Courses_and_research/ASM_and_Reverse_Engineering/Programs/C_C++/8_hook/_mines_sweeping/Hook_mines_sweeping_helper/main.cpp"
	.loc 2 18 1
	.cfi_startproc
	push	ebp
	.cfi_def_cfa_offset 8
	.cfi_offset 5, -8
	mov	ebp, esp
	.cfi_def_cfa_register 5
	sub	esp, 72
	.loc 2 34 9
	mov	DWORD PTR [ebp-20], 0
	.loc 2 35 39
	mov	DWORD PTR [esp], OFFSET FLAT:LC0
	mov	eax, DWORD PTR __imp__GetModuleHandleA@4
	call	eax
LVL1:
	sub	esp, 4
	mov	DWORD PTR [ebp-12], eax
	.loc 2 36 2
	cmp	DWORD PTR [ebp-12], 0
	jne	L4
	.loc 2 38 9
	mov	eax, 0
	jmp	L7
L4:
	.loc 2 41 99
	mov	DWORD PTR [esp+4], OFFSET FLAT:LC1
	mov	eax, DWORD PTR [ebp-12]
	mov	DWORD PTR [esp], eax
	mov	eax, DWORD PTR __imp__GetProcAddress@8
	call	eax
LVL2:
	sub	esp, 8
	mov	DWORD PTR [ebp-16], eax
	.loc 2 42 2
	cmp	DWORD PTR [ebp-16], 0
	jne	L6
	.loc 2 44 9
	mov	eax, 0
	jmp	L7
L6:
	.loc 2 47 25
	mov	eax, DWORD PTR _hWinmine
	mov	DWORD PTR [esp+36], 0
	lea	edx, [ebp-20]
	mov	DWORD PTR [esp+32], edx
	mov	edx, DWORD PTR [ebp+12]
	mov	DWORD PTR [esp+28], edx
	mov	edx, DWORD PTR [ebp+8]
	mov	DWORD PTR [esp+24], edx
	mov	DWORD PTR [esp+20], 0
	mov	DWORD PTR [esp+16], 0
	mov	DWORD PTR [esp+12], 0
	mov	DWORD PTR [esp+8], 0
	mov	DWORD PTR [esp+4], 0
	mov	DWORD PTR [esp], eax
	mov	eax, DWORD PTR [ebp-16]
	call	eax
LVL3:
	sub	esp, 40
	.loc 2 48 9
	mov	eax, DWORD PTR [ebp-20]
L7:
	.loc 2 49 1 discriminator 1
	leave
	.cfi_restore 5
	.cfi_def_cfa 4, 4
	ret
	.cfi_endproc
LFE2035:
	.section .rdata,"dr"
LC2:
	.ascii "NtCreateThreadEx\0"
	.text
	.globl	__Z16NtCreateThreadExPvS_
	.def	__Z16NtCreateThreadExPvS_;	.scl	2;	.type	32;	.endef
__Z16NtCreateThreadExPvS_:
LFB2036:
	.loc 2 55 1
	.cfi_startproc
	push	ebp
	.cfi_def_cfa_offset 8
	.cfi_offset 5, -8
	mov	ebp, esp
	.cfi_def_cfa_register 5
	sub	esp, 72
	.loc 2 70 9
	mov	DWORD PTR [ebp-20], 0
	.loc 2 71 10
	mov	DWORD PTR [ebp-12], 0
	.loc 2 72 27
	mov	DWORD PTR [ebp-16], 0
	.loc 2 75 31
	mov	DWORD PTR [esp], OFFSET FLAT:LC0
	mov	eax, DWORD PTR __imp__GetModuleHandleA@4
	call	eax
LVL4:
	sub	esp, 4
	mov	DWORD PTR [ebp-12], eax
	.loc 2 76 2
	cmp	DWORD PTR [ebp-12], 0
	jne	L9
	.loc 2 78 9
	mov	eax, 0
	jmp	L12
L9:
	.loc 2 81 65
	mov	DWORD PTR [esp+4], OFFSET FLAT:LC2
	mov	eax, DWORD PTR [ebp-12]
	mov	DWORD PTR [esp], eax
	mov	eax, DWORD PTR __imp__GetProcAddress@8
	call	eax
LVL5:
	sub	esp, 8
	mov	DWORD PTR [ebp-16], eax
	.loc 2 82 2
	cmp	DWORD PTR [ebp-16], 0
	jne	L11
	.loc 2 84 9
	mov	eax, 0
	jmp	L12
L11:
	.loc 2 87 22
	mov	edx, DWORD PTR [ebp+8]
	mov	eax, DWORD PTR _hWinmine
	mov	DWORD PTR [esp+40], 0
	mov	DWORD PTR [esp+36], 0
	mov	DWORD PTR [esp+32], 0
	mov	DWORD PTR [esp+28], 0
	mov	DWORD PTR [esp+24], 0
	mov	ecx, DWORD PTR [ebp+12]
	mov	DWORD PTR [esp+20], ecx
	mov	DWORD PTR [esp+16], edx
	mov	DWORD PTR [esp+12], eax
	mov	DWORD PTR [esp+8], 0
	mov	DWORD PTR [esp+4], 268435456
	lea	eax, [ebp-20]
	mov	DWORD PTR [esp], eax
	mov	eax, DWORD PTR [ebp-16]
	call	eax
LVL6:
	sub	esp, 44
	.loc 2 88 9
	mov	eax, DWORD PTR [ebp-20]
L12:
	.loc 2 89 1 discriminator 1
	leave
	.cfi_restore 5
	.cfi_def_cfa 4, 4
	ret
	.cfi_endproc
LFE2036:
	.section .rdata,"dr"
	.align 2
LC3:
	.ascii "kb\367\226\0\0"
LC4:
	.ascii "Could not find PID\0"
LC5:
	.ascii "kernel32.dll\0"
LC6:
	.ascii "LoadLibraryA\0"
LC7:
	.ascii "Unable to locate LoadLibraryA\0"
	.align 4
LC8:
	.ascii "Could not allocate memory in process: \0"
	.align 4
LC9:
	.ascii "Could not write to process's address space\0"
LC10:
	.ascii "DLL injection failed\0"
LC11:
	.ascii "Injected thread id: \0"
LC12:
	.ascii "for pid: \0"
	.text
	.globl	__Z13injectIntoPIDi
	.def	__Z13injectIntoPIDi;	.scl	2;	.type	32;	.endef
__Z13injectIntoPIDi:
LFB2037:
	.loc 2 92 1
	.cfi_startproc
	push	ebp
	.cfi_def_cfa_offset 8
	.cfi_offset 5, -8
	mov	ebp, esp
	.cfi_def_cfa_register 5
	sub	esp, 72
	.loc 2 96 20
	mov	DWORD PTR [esp+4], OFFSET FLAT:LC3
	mov	DWORD PTR [esp], 0
	mov	eax, DWORD PTR __imp__FindWindowW@8
	call	eax
LVL7:
	sub	esp, 8
	.loc 2 96 7
	mov	DWORD PTR _hWnd, eax
	.loc 2 98 26
	mov	eax, DWORD PTR _hWnd
	lea	edx, [ebp-36]
	mov	DWORD PTR [esp+4], edx
	mov	DWORD PTR [esp], eax
	mov	eax, DWORD PTR __imp__GetWindowThreadProcessId@8
	call	eax
LVL8:
	sub	esp, 8
	.loc 2 99 24
	mov	eax, DWORD PTR [ebp-36]
	mov	DWORD PTR [esp+8], eax
	mov	DWORD PTR [esp+4], 0
	mov	DWORD PTR [esp], 2035711
	mov	eax, DWORD PTR __imp__OpenProcess@12
	call	eax
LVL9:
	sub	esp, 12
	.loc 2 99 11
	mov	DWORD PTR _hWinmine, eax
	.loc 2 101 15
	mov	eax, DWORD PTR _hWinmine
	.loc 2 101 2
	test	eax, eax
	jne	L14
	.loc 2 103 7
	mov	DWORD PTR [esp], OFFSET FLAT:LC4
	call	_puts
	.loc 2 104 11
	mov	eax, -1
	jmp	L24
L14:
	.loc 2 108 34
	mov	DWORD PTR [esp], OFFSET FLAT:LC5
	mov	eax, DWORD PTR __imp__GetModuleHandleA@4
	call	eax
LVL10:
	sub	esp, 4
	mov	DWORD PTR [ebp-16], eax
	.loc 2 111 47
	mov	DWORD PTR [esp+4], OFFSET FLAT:LC6
	mov	eax, DWORD PTR [ebp-16]
	mov	DWORD PTR [esp], eax
	mov	eax, DWORD PTR __imp__GetProcAddress@8
	call	eax
LVL11:
	sub	esp, 8
	mov	DWORD PTR [ebp-20], eax
	.loc 2 112 2
	cmp	DWORD PTR [ebp-20], 0
	jne	L16
	.loc 2 114 7
	mov	DWORD PTR [esp], OFFSET FLAT:LC7
	call	_puts
	.loc 2 115 11
	mov	eax, -1
	jmp	L24
L16:
	.loc 2 118 63
	mov	DWORD PTR [esp], OFFSET FLAT:_dll
	call	_strlen
	mov	edx, eax
	.loc 2 118 41
	mov	eax, DWORD PTR _hWinmine
	mov	DWORD PTR [esp+16], 4
	mov	DWORD PTR [esp+12], 12288
	mov	DWORD PTR [esp+8], edx
	mov	DWORD PTR [esp+4], 0
	mov	DWORD PTR [esp], eax
	mov	eax, DWORD PTR __imp__VirtualAllocEx@20
	call	eax
LVL12:
	sub	esp, 20
	mov	DWORD PTR [ebp-24], eax
	.loc 2 119 2
	cmp	DWORD PTR [ebp-24], 0
	jne	L17
	.loc 2 121 11
	mov	DWORD PTR [esp+4], OFFSET FLAT:LC8
	mov	DWORD PTR [esp], OFFSET FLAT:__ZSt4cout
	call	__ZStlsISt11char_traitsIcEERSt13basic_ostreamIcT_ES5_PKc
	mov	edx, eax
	.loc 2 121 62
	mov	eax, DWORD PTR [ebp-36]
	.loc 2 121 55
	mov	DWORD PTR [esp], eax
	mov	ecx, edx
	call	__ZNSolsEm
	sub	esp, 4
	.loc 2 121 62
	mov	DWORD PTR [esp], OFFSET FLAT:__ZSt4endlIcSt11char_traitsIcEERSt13basic_ostreamIT_T0_ES6_
	mov	ecx, eax
	call	__ZNSolsEPFRSoS_E
	sub	esp, 4
	.loc 2 122 11
	mov	eax, -1
	jmp	L24
L17:
	.loc 2 126 59
	mov	DWORD PTR [esp], OFFSET FLAT:_dll
	call	_strlen
	mov	edx, eax
	.loc 2 126 28
	mov	eax, DWORD PTR _hWinmine
	mov	DWORD PTR [esp+16], 0
	mov	DWORD PTR [esp+12], edx
	mov	DWORD PTR [esp+8], OFFSET FLAT:_dll
	mov	edx, DWORD PTR [ebp-24]
	mov	DWORD PTR [esp+4], edx
	mov	DWORD PTR [esp], eax
	mov	eax, DWORD PTR __imp__WriteProcessMemory@20
	call	eax
LVL13:
	sub	esp, 20
	mov	DWORD PTR [ebp-28], eax
	.loc 2 127 2
	cmp	DWORD PTR [ebp-28], 0
	jne	L18
	.loc 2 129 7
	mov	DWORD PTR [esp], OFFSET FLAT:LC9
	call	_puts
	.loc 2 130 11
	mov	eax, -1
	jmp	L24
L18:
	cmp	DWORD PTR [ebp+8], 1
	je	L19
	cmp	DWORD PTR [ebp+8], 2
	je	L20
	jmp	L25
L19:
	.loc 2 137 29
	mov	eax, DWORD PTR [ebp-24]
	mov	DWORD PTR [esp+4], eax
	mov	eax, DWORD PTR [ebp-20]
	mov	DWORD PTR [esp], eax
	call	__Z16NtCreateThreadExPvS_
	mov	DWORD PTR [ebp-12], eax
	.loc 2 138 3
	jmp	L22
L20:
	.loc 2 140 32
	mov	eax, DWORD PTR [ebp-24]
	mov	DWORD PTR [esp+4], eax
	mov	eax, DWORD PTR [ebp-20]
	mov	DWORD PTR [esp], eax
	call	__Z19RtlCreateUserThreadPvS_
	mov	DWORD PTR [ebp-12], eax
	.loc 2 141 3
	jmp	L22
L25:
	.loc 2 143 31
	mov	edx, DWORD PTR [ebp-20]
	mov	eax, DWORD PTR _hWinmine
	mov	DWORD PTR [esp+24], 0
	mov	DWORD PTR [esp+20], 0
	mov	ecx, DWORD PTR [ebp-24]
	mov	DWORD PTR [esp+16], ecx
	mov	DWORD PTR [esp+12], edx
	mov	DWORD PTR [esp+8], 0
	mov	DWORD PTR [esp+4], 0
	mov	DWORD PTR [esp], eax
	mov	eax, DWORD PTR __imp__CreateRemoteThread@28
	call	eax
LVL14:
	sub	esp, 28
	mov	DWORD PTR [ebp-12], eax
L22:
LBB2:
	.loc 2 146 2
	cmp	DWORD PTR [ebp-12], 0
	jne	L23
	.loc 2 148 10
	mov	DWORD PTR [esp], OFFSET FLAT:LC10
	call	_puts
	.loc 2 149 11
	mov	eax, -1
	jmp	L24
L23:
LBB3:
	.loc 2 153 31
	mov	eax, DWORD PTR [ebp-12]
	mov	DWORD PTR [esp], eax
	mov	eax, DWORD PTR __imp__GetThreadId@4
	call	eax
LVL15:
	sub	esp, 4
	mov	DWORD PTR [ebp-32], eax
	.loc 2 154 10
	mov	DWORD PTR [esp+4], OFFSET FLAT:LC11
	mov	DWORD PTR [esp], OFFSET FLAT:__ZSt4cout
	call	__ZStlsISt11char_traitsIcEERSt13basic_ostreamIcT_ES5_PKc
	mov	edx, eax
	.loc 2 154 36
	mov	eax, DWORD PTR [ebp-32]
	mov	DWORD PTR [esp], eax
	mov	ecx, edx
	call	__ZNSolsEm
	sub	esp, 4
	.loc 2 154 48
	mov	DWORD PTR [esp+4], OFFSET FLAT:LC12
	mov	DWORD PTR [esp], eax
	call	__ZStlsISt11char_traitsIcEERSt13basic_ostreamIcT_ES5_PKc
	mov	edx, eax
	.loc 2 154 70
	mov	eax, DWORD PTR [ebp-36]
	.loc 2 154 63
	mov	DWORD PTR [esp], eax
	mov	ecx, edx
	call	__ZNSolsEm
	sub	esp, 4
	.loc 2 154 70
	mov	DWORD PTR [esp], OFFSET FLAT:__ZSt4endlIcSt11char_traitsIcEERSt13basic_ostreamIT_T0_ES6_
	mov	ecx, eax
	call	__ZNSolsEPFRSoS_E
	sub	esp, 4
	.loc 2 156 14
	mov	eax, DWORD PTR _hWinmine
	mov	DWORD PTR [esp], eax
	mov	eax, DWORD PTR __imp__CloseHandle@4
	call	eax
LVL16:
	sub	esp, 4
LBE3:
LBE2:
	.loc 2 159 12
	mov	eax, 0
L24:
	.loc 2 160 1 discriminator 1
	leave
	.cfi_restore 5
	.cfi_def_cfa 4, 4
	ret
	.cfi_endproc
LFE2037:
	.def	___main;	.scl	2;	.type	32;	.endef
	.section .rdata,"dr"
	.align 4
LC13:
	.ascii "Which method? (0 (default): CRT, 1: NtCreateThread, 2: RtlCreateUserThread)\0"
LC14:
	.ascii "%u\0"
LC15:
	.ascii "Could not inject into PID\0"
LC16:
	.ascii "pause\0"
	.text
	.globl	_main
	.def	_main;	.scl	2;	.type	32;	.endef
_main:
LFB2038:
	.loc 2 163 1
	.cfi_startproc
	push	ebp
	.cfi_def_cfa_offset 8
	.cfi_offset 5, -8
	mov	ebp, esp
	.cfi_def_cfa_register 5
	and	esp, -16
	sub	esp, 32
	.loc 2 163 1
	call	___main
LVL17:
	.loc 2 166 6
	mov	DWORD PTR [esp], OFFSET FLAT:LC13
	call	_puts
	.loc 2 167 7
	lea	eax, [esp+24]
	mov	DWORD PTR [esp+4], eax
	mov	DWORD PTR [esp], OFFSET FLAT:LC14
	call	__ZL5scanfPKcz
	.loc 2 169 28
	mov	eax, DWORD PTR [esp+24]
	mov	DWORD PTR [esp], eax
	call	__Z13injectIntoPIDi
	mov	DWORD PTR [esp+28], eax
	.loc 2 170 2
	cmp	DWORD PTR [esp+28], -1
	jne	L27
	.loc 2 172 7
	mov	DWORD PTR [esp], OFFSET FLAT:LC15
	call	_puts
L27:
	.loc 2 175 8
	mov	DWORD PTR [esp], OFFSET FLAT:LC16
	call	_system
	.loc 2 176 9
	mov	eax, 0
	.loc 2 177 1
	leave
	.cfi_restore 5
	.cfi_def_cfa 4, 4
	ret
	.cfi_endproc
LFE2038:
	.def	___tcf_0;	.scl	3;	.type	32;	.endef
___tcf_0:
LFB2529:
	.file 3 "C:/Program Files (x86)/CodeBlocks/MinGW/lib/gcc/i686-w64-mingw32/8.1.0/include/c++/iostream"
	.loc 3 74 25
	.cfi_startproc
	push	ebp
	.cfi_def_cfa_offset 8
	.cfi_offset 5, -8
	mov	ebp, esp
	.cfi_def_cfa_register 5
	sub	esp, 8
	.loc 3 74 25
	mov	ecx, OFFSET FLAT:__ZStL8__ioinit
	call	__ZNSt8ios_base4InitD1Ev
	leave
	.cfi_restore 5
	.cfi_def_cfa 4, 4
	ret
	.cfi_endproc
LFE2529:
	.def	__Z41__static_initialization_and_destruction_0ii;	.scl	3;	.type	32;	.endef
__Z41__static_initialization_and_destruction_0ii:
LFB2528:
	.loc 2 177 1
	.cfi_startproc
	push	ebp
	.cfi_def_cfa_offset 8
	.cfi_offset 5, -8
	mov	ebp, esp
	.cfi_def_cfa_register 5
	sub	esp, 24
	.loc 2 177 1
	cmp	DWORD PTR [ebp+8], 1
	jne	L32
	.loc 2 177 1 is_stmt 0 discriminator 1
	cmp	DWORD PTR [ebp+12], 65535
	jne	L32
	.loc 3 74 25 is_stmt 1
	mov	ecx, OFFSET FLAT:__ZStL8__ioinit
	call	__ZNSt8ios_base4InitC1Ev
	mov	DWORD PTR [esp], OFFSET FLAT:___tcf_0
	call	_atexit
L32:
	.loc 2 177 1
	nop
	leave
	.cfi_restore 5
	.cfi_def_cfa 4, 4
	ret
	.cfi_endproc
LFE2528:
	.def	__GLOBAL__sub_I_dll;	.scl	3;	.type	32;	.endef
__GLOBAL__sub_I_dll:
LFB2530:
	.loc 2 177 1
	.cfi_startproc
	push	ebp
	.cfi_def_cfa_offset 8
	.cfi_offset 5, -8
	mov	ebp, esp
	.cfi_def_cfa_register 5
	sub	esp, 24
	.loc 2 177 1
	mov	DWORD PTR [esp+4], 65535
	mov	DWORD PTR [esp], 1
	call	__Z41__static_initialization_and_destruction_0ii
	leave
	.cfi_restore 5
	.cfi_def_cfa 4, 4
	ret
	.cfi_endproc
LFE2530:
	.section	.ctors,"w"
	.align 4
	.long	__GLOBAL__sub_I_dll
	.text
Letext0:
	.file 4 "C:/Program Files (x86)/CodeBlocks/MinGW/lib/gcc/i686-w64-mingw32/8.1.0/include/c++/cwchar"
	.file 5 "C:/Program Files (x86)/CodeBlocks/MinGW/lib/gcc/i686-w64-mingw32/8.1.0/include/c++/new"
	.file 6 "C:/Program Files (x86)/CodeBlocks/MinGW/lib/gcc/i686-w64-mingw32/8.1.0/include/c++/bits/exception_ptr.h"
	.file 7 "C:/Program Files (x86)/CodeBlocks/MinGW/lib/gcc/i686-w64-mingw32/8.1.0/include/c++/type_traits"
	.file 8 "C:/Program Files (x86)/CodeBlocks/MinGW/lib/gcc/i686-w64-mingw32/8.1.0/include/c++/bits/cpp_type_traits.h"
	.file 9 "C:/Program Files (x86)/CodeBlocks/MinGW/lib/gcc/i686-w64-mingw32/8.1.0/include/c++/bits/stl_pair.h"
	.file 10 "C:/Program Files (x86)/CodeBlocks/MinGW/lib/gcc/i686-w64-mingw32/8.1.0/include/c++/debug/debug.h"
	.file 11 "C:/Program Files (x86)/CodeBlocks/MinGW/lib/gcc/i686-w64-mingw32/8.1.0/include/c++/bits/char_traits.h"
	.file 12 "C:/Program Files (x86)/CodeBlocks/MinGW/lib/gcc/i686-w64-mingw32/8.1.0/include/c++/i686-w64-mingw32/bits/c++config.h"
	.file 13 "C:/Program Files (x86)/CodeBlocks/MinGW/lib/gcc/i686-w64-mingw32/8.1.0/include/c++/cstdint"
	.file 14 "C:/Program Files (x86)/CodeBlocks/MinGW/lib/gcc/i686-w64-mingw32/8.1.0/include/c++/clocale"
	.file 15 "C:/Program Files (x86)/CodeBlocks/MinGW/lib/gcc/i686-w64-mingw32/8.1.0/include/c++/cstdlib"
	.file 16 "C:/Program Files (x86)/CodeBlocks/MinGW/lib/gcc/i686-w64-mingw32/8.1.0/include/c++/cstdio"
	.file 17 "C:/Program Files (x86)/CodeBlocks/MinGW/lib/gcc/i686-w64-mingw32/8.1.0/include/c++/bits/basic_string.h"
	.file 18 "C:/Program Files (x86)/CodeBlocks/MinGW/lib/gcc/i686-w64-mingw32/8.1.0/include/c++/system_error"
	.file 19 "C:/Program Files (x86)/CodeBlocks/MinGW/lib/gcc/i686-w64-mingw32/8.1.0/include/c++/bits/ios_base.h"
	.file 20 "C:/Program Files (x86)/CodeBlocks/MinGW/lib/gcc/i686-w64-mingw32/8.1.0/include/c++/cwctype"
	.file 21 "C:/Program Files (x86)/CodeBlocks/MinGW/lib/gcc/i686-w64-mingw32/8.1.0/include/c++/iosfwd"
	.file 22 "C:/Program Files (x86)/CodeBlocks/MinGW/lib/gcc/i686-w64-mingw32/8.1.0/include/c++/bits/std_abs.h"
	.file 23 "C:/Program Files (x86)/CodeBlocks/MinGW/lib/gcc/i686-w64-mingw32/8.1.0/include/c++/bits/predefined_ops.h"
	.file 24 "C:/Program Files (x86)/CodeBlocks/MinGW/lib/gcc/i686-w64-mingw32/8.1.0/include/c++/ext/new_allocator.h"
	.file 25 "C:/Program Files (x86)/CodeBlocks/MinGW/lib/gcc/i686-w64-mingw32/8.1.0/include/c++/ext/numeric_traits.h"
	.file 26 "C:/Program Files (x86)/CodeBlocks/MinGW/i686-w64-mingw32/include/crtdefs.h"
	.file 27 "C:/Program Files (x86)/CodeBlocks/MinGW/i686-w64-mingw32/include/locale.h"
	.file 28 "C:/Program Files (x86)/CodeBlocks/MinGW/i686-w64-mingw32/include/wchar.h"
	.file 29 "C:/Program Files (x86)/CodeBlocks/MinGW/i686-w64-mingw32/include/swprintf.inl"
	.file 30 "C:/Program Files (x86)/CodeBlocks/MinGW/i686-w64-mingw32/include/stdint.h"
	.file 31 "C:/Program Files (x86)/CodeBlocks/MinGW/i686-w64-mingw32/include/ctype.h"
	.file 32 "C:/Program Files (x86)/CodeBlocks/MinGW/i686-w64-mingw32/include/process.h"
	.file 33 "C:/Program Files (x86)/CodeBlocks/MinGW/i686-w64-mingw32/include/pthread.h"
	.file 34 "C:/Program Files (x86)/CodeBlocks/MinGW/lib/gcc/i686-w64-mingw32/8.1.0/include/c++/i686-w64-mingw32/bits/atomic_word.h"
	.file 35 "C:/Program Files (x86)/CodeBlocks/MinGW/i686-w64-mingw32/include/stdlib.h"
	.file 36 "C:/Program Files (x86)/CodeBlocks/MinGW/i686-w64-mingw32/include/malloc.h"
	.file 37 "C:/Program Files (x86)/CodeBlocks/MinGW/i686-w64-mingw32/include/wctype.h"
	.file 38 "C:/Program Files (x86)/CodeBlocks/MinGW/i686-w64-mingw32/include/excpt.h"
	.file 39 "C:/Program Files (x86)/CodeBlocks/MinGW/i686-w64-mingw32/include/minwindef.h"
	.file 40 "C:/Program Files (x86)/CodeBlocks/MinGW/i686-w64-mingw32/include/winnt.h"
	.file 41 "C:/Program Files (x86)/CodeBlocks/MinGW/i686-w64-mingw32/include/guiddef.h"
	.file 42 "C:/Program Files (x86)/CodeBlocks/MinGW/i686-w64-mingw32/include/windef.h"
	.file 43 "C:/Program Files (x86)/CodeBlocks/MinGW/i686-w64-mingw32/include/minwinbase.h"
	.file 44 "C:/Program Files (x86)/CodeBlocks/MinGW/i686-w64-mingw32/include/rpcdce.h"
	.file 45 "C:/Program Files (x86)/CodeBlocks/MinGW/lib/gcc/i686-w64-mingw32/8.1.0/include/c++/stdlib.h"
	.file 46 "C:/Program Files (x86)/CodeBlocks/MinGW/i686-w64-mingw32/include/wtypesbase.h"
	.file 47 "C:/Program Files (x86)/CodeBlocks/MinGW/i686-w64-mingw32/include/unknwnbase.h"
	.file 48 "C:/Program Files (x86)/CodeBlocks/MinGW/i686-w64-mingw32/include/objidlbase.h"
	.file 49 "C:/Program Files (x86)/CodeBlocks/MinGW/i686-w64-mingw32/include/cguid.h"
	.file 50 "C:/Program Files (x86)/CodeBlocks/MinGW/i686-w64-mingw32/include/wtypes.h"
	.file 51 "C:/Program Files (x86)/CodeBlocks/MinGW/i686-w64-mingw32/include/objidl.h"
	.file 52 "C:/Program Files (x86)/CodeBlocks/MinGW/i686-w64-mingw32/include/oleidl.h"
	.file 53 "C:/Program Files (x86)/CodeBlocks/MinGW/i686-w64-mingw32/include/servprov.h"
	.file 54 "C:/Program Files (x86)/CodeBlocks/MinGW/i686-w64-mingw32/include/oaidl.h"
	.file 55 "C:/Program Files (x86)/CodeBlocks/MinGW/i686-w64-mingw32/include/msxml.h"
	.file 56 "C:/Program Files (x86)/CodeBlocks/MinGW/i686-w64-mingw32/include/urlmon.h"
	.file 57 "C:/Program Files (x86)/CodeBlocks/MinGW/i686-w64-mingw32/include/propidl.h"
	.file 58 "C:/Program Files (x86)/CodeBlocks/MinGW/i686-w64-mingw32/include/oleauto.h"
	.file 59 "C:/Program Files (x86)/CodeBlocks/MinGW/i686-w64-mingw32/include/winioctl.h"
	.file 60 "C:/Program Files (x86)/CodeBlocks/MinGW/i686-w64-mingw32/include/winsmcrd.h"
	.file 61 "C:/Program Files (x86)/CodeBlocks/MinGW/i686-w64-mingw32/include/winscard.h"
	.file 62 "C:/Program Files (x86)/CodeBlocks/MinGW/i686-w64-mingw32/include/commdlg.h"
	.file 63 "C:/Program Files (x86)/CodeBlocks/MinGW/i686-w64-mingw32/include/processthreadsapi.h"
	.file 64 "C:/Program Files (x86)/CodeBlocks/MinGW/i686-w64-mingw32/include/handleapi.h"
	.file 65 "C:/Program Files (x86)/CodeBlocks/MinGW/i686-w64-mingw32/include/winuser.h"
	.file 66 "C:/Program Files (x86)/CodeBlocks/MinGW/i686-w64-mingw32/include/libloaderapi.h"
	.file 67 "C:/Program Files (x86)/CodeBlocks/MinGW/i686-w64-mingw32/include/memoryapi.h"
	.file 68 "<built-in>"