	.file	"des.c"
	.intel_syntax noprefix
	.text
Ltext0:
	.globl	_IP_Table
	.section .rdata,"dr"
	.align 32
_IP_Table:
	.byte	58
	.byte	50
	.byte	42
	.byte	34
	.byte	26
	.byte	18
	.byte	10
	.byte	2
	.byte	60
	.byte	52
	.byte	44
	.byte	36
	.byte	28
	.byte	20
	.byte	12
	.byte	4
	.byte	62
	.byte	54
	.byte	46
	.byte	38
	.byte	30
	.byte	22
	.byte	14
	.byte	6
	.byte	64
	.byte	56
	.byte	48
	.byte	40
	.byte	32
	.byte	24
	.byte	16
	.byte	8
	.byte	57
	.byte	49
	.byte	41
	.byte	33
	.byte	25
	.byte	17
	.byte	9
	.byte	1
	.byte	59
	.byte	51
	.byte	43
	.byte	35
	.byte	27
	.byte	19
	.byte	11
	.byte	3
	.byte	61
	.byte	53
	.byte	45
	.byte	37
	.byte	29
	.byte	21
	.byte	13
	.byte	5
	.byte	63
	.byte	55
	.byte	47
	.byte	39
	.byte	31
	.byte	23
	.byte	15
	.byte	7
	.globl	_IPR_Table
	.align 32
_IPR_Table:
	.byte	40
	.byte	8
	.byte	48
	.byte	16
	.byte	56
	.byte	24
	.byte	64
	.byte	32
	.byte	39
	.byte	7
	.byte	47
	.byte	15
	.byte	55
	.byte	23
	.byte	63
	.byte	31
	.byte	38
	.byte	6
	.byte	46
	.byte	14
	.byte	54
	.byte	22
	.byte	62
	.byte	30
	.byte	37
	.byte	5
	.byte	45
	.byte	13
	.byte	53
	.byte	21
	.byte	61
	.byte	29
	.byte	36
	.byte	4
	.byte	44
	.byte	12
	.byte	52
	.byte	20
	.byte	60
	.byte	28
	.byte	35
	.byte	3
	.byte	43
	.byte	11
	.byte	51
	.byte	19
	.byte	59
	.byte	27
	.byte	34
	.byte	2
	.byte	42
	.byte	10
	.byte	50
	.byte	18
	.byte	58
	.byte	26
	.byte	33
	.byte	1
	.byte	41
	.byte	9
	.byte	49
	.byte	17
	.byte	57
	.byte	25
	.globl	_E_Table
	.align 32
_E_Table:
	.byte	32
	.byte	1
	.byte	2
	.byte	3
	.byte	4
	.byte	5
	.byte	4
	.byte	5
	.byte	6
	.byte	7
	.byte	8
	.byte	9
	.byte	8
	.byte	9
	.byte	10
	.byte	11
	.byte	12
	.byte	13
	.byte	12
	.byte	13
	.byte	14
	.byte	15
	.byte	16
	.byte	17
	.byte	16
	.byte	17
	.byte	18
	.byte	19
	.byte	20
	.byte	21
	.byte	20
	.byte	21
	.byte	22
	.byte	23
	.byte	24
	.byte	25
	.byte	24
	.byte	25
	.byte	26
	.byte	27
	.byte	28
	.byte	29
	.byte	28
	.byte	29
	.byte	30
	.byte	31
	.byte	32
	.byte	1
	.globl	_P_Table
	.align 32
_P_Table:
	.byte	16
	.byte	7
	.byte	20
	.byte	21
	.byte	29
	.byte	12
	.byte	28
	.byte	17
	.byte	1
	.byte	15
	.byte	23
	.byte	26
	.byte	5
	.byte	18
	.byte	31
	.byte	10
	.byte	2
	.byte	8
	.byte	24
	.byte	14
	.byte	32
	.byte	27
	.byte	3
	.byte	9
	.byte	19
	.byte	13
	.byte	30
	.byte	6
	.byte	22
	.byte	11
	.byte	4
	.byte	25
	.globl	_PC1_Table
	.align 32
_PC1_Table:
	.byte	57
	.byte	49
	.byte	41
	.byte	33
	.byte	25
	.byte	17
	.byte	9
	.byte	1
	.byte	58
	.byte	50
	.byte	42
	.byte	34
	.byte	26
	.byte	18
	.byte	10
	.byte	2
	.byte	59
	.byte	51
	.byte	43
	.byte	35
	.byte	27
	.byte	19
	.byte	11
	.byte	3
	.byte	60
	.byte	52
	.byte	44
	.byte	36
	.byte	63
	.byte	55
	.byte	47
	.byte	39
	.byte	31
	.byte	23
	.byte	15
	.byte	7
	.byte	62
	.byte	54
	.byte	46
	.byte	38
	.byte	30
	.byte	22
	.byte	14
	.byte	6
	.byte	61
	.byte	53
	.byte	45
	.byte	37
	.byte	29
	.byte	21
	.byte	13
	.byte	5
	.byte	28
	.byte	20
	.byte	12
	.byte	4
	.globl	_PC2_Table
	.align 32
_PC2_Table:
	.byte	14
	.byte	17
	.byte	11
	.byte	24
	.byte	1
	.byte	5
	.byte	3
	.byte	28
	.byte	15
	.byte	6
	.byte	21
	.byte	10
	.byte	23
	.byte	19
	.byte	12
	.byte	4
	.byte	26
	.byte	8
	.byte	16
	.byte	7
	.byte	27
	.byte	20
	.byte	13
	.byte	2
	.byte	41
	.byte	52
	.byte	31
	.byte	37
	.byte	47
	.byte	55
	.byte	30
	.byte	40
	.byte	51
	.byte	45
	.byte	33
	.byte	48
	.byte	44
	.byte	49
	.byte	39
	.byte	56
	.byte	34
	.byte	53
	.byte	46
	.byte	42
	.byte	50
	.byte	36
	.byte	29
	.byte	32
	.globl	_LOOP_Table
	.align 4
_LOOP_Table:
	.byte	1
	.byte	1
	.byte	2
	.byte	2
	.byte	2
	.byte	2
	.byte	2
	.byte	2
	.byte	1
	.byte	2
	.byte	2
	.byte	2
	.byte	2
	.byte	2
	.byte	2
	.byte	1
	.globl	_S_Box
	.align 32
_S_Box:
	.byte	14
	.byte	4
	.byte	13
	.byte	1
	.byte	2
	.byte	15
	.byte	11
	.byte	8
	.byte	3
	.byte	10
	.byte	6
	.byte	12
	.byte	5
	.byte	9
	.byte	0
	.byte	7
	.byte	0
	.byte	15
	.byte	7
	.byte	4
	.byte	14
	.byte	2
	.byte	13
	.byte	1
	.byte	10
	.byte	6
	.byte	12
	.byte	11
	.byte	9
	.byte	5
	.byte	3
	.byte	8
	.byte	4
	.byte	1
	.byte	14
	.byte	8
	.byte	13
	.byte	6
	.byte	2
	.byte	11
	.byte	15
	.byte	12
	.byte	9
	.byte	7
	.byte	3
	.byte	10
	.byte	5
	.byte	0
	.byte	15
	.byte	12
	.byte	8
	.byte	2
	.byte	4
	.byte	9
	.byte	1
	.byte	7
	.byte	5
	.byte	11
	.byte	3
	.byte	14
	.byte	10
	.byte	0
	.byte	6
	.byte	13
	.byte	15
	.byte	1
	.byte	8
	.byte	14
	.byte	6
	.byte	11
	.byte	3
	.byte	4
	.byte	9
	.byte	7
	.byte	2
	.byte	13
	.byte	12
	.byte	0
	.byte	5
	.byte	10
	.byte	3
	.byte	13
	.byte	4
	.byte	7
	.byte	15
	.byte	2
	.byte	8
	.byte	14
	.byte	12
	.byte	0
	.byte	1
	.byte	10
	.byte	6
	.byte	9
	.byte	11
	.byte	5
	.byte	0
	.byte	14
	.byte	7
	.byte	11
	.byte	10
	.byte	4
	.byte	13
	.byte	1
	.byte	5
	.byte	8
	.byte	12
	.byte	6
	.byte	9
	.byte	3
	.byte	2
	.byte	15
	.byte	13
	.byte	8
	.byte	10
	.byte	1
	.byte	3
	.byte	15
	.byte	4
	.byte	2
	.byte	11
	.byte	6
	.byte	7
	.byte	12
	.byte	0
	.byte	5
	.byte	14
	.byte	9
	.byte	10
	.byte	0
	.byte	9
	.byte	14
	.byte	6
	.byte	3
	.byte	15
	.byte	5
	.byte	1
	.byte	13
	.byte	12
	.byte	7
	.byte	11
	.byte	4
	.byte	2
	.byte	8
	.byte	13
	.byte	7
	.byte	0
	.byte	9
	.byte	3
	.byte	4
	.byte	6
	.byte	10
	.byte	2
	.byte	8
	.byte	5
	.byte	14
	.byte	12
	.byte	11
	.byte	15
	.byte	1
	.byte	13
	.byte	6
	.byte	4
	.byte	9
	.byte	8
	.byte	15
	.byte	3
	.byte	0
	.byte	11
	.byte	1
	.byte	2
	.byte	12
	.byte	5
	.byte	10
	.byte	14
	.byte	7
	.byte	1
	.byte	10
	.byte	13
	.byte	0
	.byte	6
	.byte	9
	.byte	8
	.byte	7
	.byte	4
	.byte	15
	.byte	14
	.byte	3
	.byte	11
	.byte	5
	.byte	2
	.byte	12
	.byte	7
	.byte	13
	.byte	14
	.byte	3
	.byte	0
	.byte	6
	.byte	9
	.byte	10
	.byte	1
	.byte	2
	.byte	8
	.byte	5
	.byte	11
	.byte	12
	.byte	4
	.byte	15
	.byte	13
	.byte	8
	.byte	11
	.byte	5
	.byte	6
	.byte	15
	.byte	0
	.byte	3
	.byte	4
	.byte	7
	.byte	2
	.byte	12
	.byte	1
	.byte	10
	.byte	14
	.byte	9
	.byte	10
	.byte	6
	.byte	9
	.byte	0
	.byte	12
	.byte	11
	.byte	7
	.byte	13
	.byte	15
	.byte	1
	.byte	3
	.byte	14
	.byte	5
	.byte	2
	.byte	8
	.byte	4
	.byte	3
	.byte	15
	.byte	0
	.byte	6
	.byte	10
	.byte	1
	.byte	13
	.byte	8
	.byte	9
	.byte	4
	.byte	5
	.byte	11
	.byte	12
	.byte	7
	.byte	2
	.byte	14
	.byte	2
	.byte	12
	.byte	4
	.byte	1
	.byte	7
	.byte	10
	.byte	11
	.byte	6
	.byte	8
	.byte	5
	.byte	3
	.byte	15
	.byte	13
	.byte	0
	.byte	14
	.byte	9
	.byte	14
	.byte	11
	.byte	2
	.byte	12
	.byte	4
	.byte	7
	.byte	13
	.byte	1
	.byte	5
	.byte	0
	.byte	15
	.byte	10
	.byte	3
	.byte	9
	.byte	8
	.byte	6
	.byte	4
	.byte	2
	.byte	1
	.byte	11
	.byte	10
	.byte	13
	.byte	7
	.byte	8
	.byte	15
	.byte	9
	.byte	12
	.byte	5
	.byte	6
	.byte	3
	.byte	0
	.byte	14
	.byte	11
	.byte	8
	.byte	12
	.byte	7
	.byte	1
	.byte	14
	.byte	2
	.byte	13
	.byte	6
	.byte	15
	.byte	0
	.byte	9
	.byte	10
	.byte	4
	.byte	5
	.byte	3
	.byte	12
	.byte	1
	.byte	10
	.byte	15
	.byte	9
	.byte	2
	.byte	6
	.byte	8
	.byte	0
	.byte	13
	.byte	3
	.byte	4
	.byte	14
	.byte	7
	.byte	5
	.byte	11
	.byte	10
	.byte	15
	.byte	4
	.byte	2
	.byte	7
	.byte	12
	.byte	9
	.byte	5
	.byte	6
	.byte	1
	.byte	13
	.byte	14
	.byte	0
	.byte	11
	.byte	3
	.byte	8
	.byte	9
	.byte	14
	.byte	15
	.byte	5
	.byte	2
	.byte	8
	.byte	12
	.byte	3
	.byte	7
	.byte	0
	.byte	4
	.byte	10
	.byte	1
	.byte	13
	.byte	11
	.byte	6
	.byte	4
	.byte	3
	.byte	2
	.byte	12
	.byte	9
	.byte	5
	.byte	15
	.byte	10
	.byte	11
	.byte	14
	.byte	1
	.byte	7
	.byte	6
	.byte	0
	.byte	8
	.byte	13
	.byte	4
	.byte	11
	.byte	2
	.byte	14
	.byte	15
	.byte	0
	.byte	8
	.byte	13
	.byte	3
	.byte	12
	.byte	9
	.byte	7
	.byte	5
	.byte	10
	.byte	6
	.byte	1
	.byte	13
	.byte	0
	.byte	11
	.byte	7
	.byte	4
	.byte	9
	.byte	1
	.byte	10
	.byte	14
	.byte	3
	.byte	5
	.byte	12
	.byte	2
	.byte	15
	.byte	8
	.byte	6
	.byte	1
	.byte	4
	.byte	11
	.byte	13
	.byte	12
	.byte	3
	.byte	7
	.byte	14
	.byte	10
	.byte	15
	.byte	6
	.byte	8
	.byte	0
	.byte	5
	.byte	9
	.byte	2
	.byte	6
	.byte	11
	.byte	13
	.byte	8
	.byte	1
	.byte	4
	.byte	10
	.byte	7
	.byte	9
	.byte	5
	.byte	0
	.byte	15
	.byte	14
	.byte	2
	.byte	3
	.byte	12
	.byte	13
	.byte	2
	.byte	8
	.byte	4
	.byte	6
	.byte	15
	.byte	11
	.byte	1
	.byte	10
	.byte	9
	.byte	3
	.byte	14
	.byte	5
	.byte	0
	.byte	12
	.byte	7
	.byte	1
	.byte	15
	.byte	13
	.byte	8
	.byte	10
	.byte	3
	.byte	7
	.byte	4
	.byte	12
	.byte	5
	.byte	6
	.byte	11
	.byte	0
	.byte	14
	.byte	9
	.byte	2
	.byte	7
	.byte	11
	.byte	4
	.byte	1
	.byte	9
	.byte	12
	.byte	14
	.byte	2
	.byte	0
	.byte	6
	.byte	10
	.byte	13
	.byte	15
	.byte	3
	.byte	5
	.byte	8
	.byte	2
	.byte	1
	.byte	14
	.byte	7
	.byte	4
	.byte	10
	.byte	8
	.byte	13
	.byte	15
	.byte	12
	.byte	9
	.byte	0
	.byte	3
	.byte	5
	.byte	6
	.byte	11
	.globl	_KEY
	.data
	.align 4
_KEY:
	.ascii "DE3_En1C\0"
	.comm	_subkey, 768, 5
	.globl	_result
	.align 4
_result:
	.byte	-17
	.byte	52
	.byte	-44
	.byte	-93
	.byte	-58
	.byte	-124
	.byte	-28
	.byte	35
	.text
	.globl	_encryption
	.def	_encryption;	.scl	2;	.type	32;	.endef
_encryption:
LFB17:
	.file 1 "O:/BUPT-SCSS/Courses_and_research/ASM_and_Reverse_Engineering/Programs/C_C++/5_cipher_reverse/des/des.c"
	.loc 1 114 70
	.cfi_startproc
	push	ebp
	.cfi_def_cfa_offset 8
	.cfi_offset 5, -8
	mov	ebp, esp
	.cfi_def_cfa_register 5
	push	edi
	push	esi
	push	ebx
	sub	esp, 204
	.cfi_offset 7, -12
	.cfi_offset 6, -16
	.cfi_offset 3, -20
	.loc 1 121 5
	mov	DWORD PTR [esp+8], 8
	lea	eax, [ebp-92]
	mov	DWORD PTR [esp+4], eax
	mov	eax, DWORD PTR [ebp+8]
	mov	DWORD PTR [esp], eax
	call	_byte2Bit
	.loc 1 122 5
	lea	eax, [ebp-92]
	mov	DWORD PTR [esp+4], eax
	lea	eax, [ebp-92]
	mov	DWORD PTR [esp], eax
	call	_ip_replace
	.loc 1 124 5
	lea	eax, [ebp-156]
	lea	edx, [ebp-92]
	mov	ecx, 8
	mov	edi, eax
	mov	esi, edx
	rep movsd
	.loc 1 125 5
	lea	edx, [ebp-92]
	add	edx, 32
	lea	eax, [ebp-188]
	mov	ebx, edx
	mov	edx, 8
	mov	edi, eax
	mov	esi, ebx
	mov	ecx, edx
	rep movsd
	.loc 1 127 10
	mov	DWORD PTR [ebp-28], 0
	.loc 1 127 5
	jmp	L2
L3:
	.loc 1 128 9 discriminator 3
	mov	edx, DWORD PTR [ebp-28]
	mov	eax, edx
	add	eax, eax
	add	eax, edx
	sal	eax, 4
	add	eax, OFFSET FLAT:_subkey
	mov	DWORD PTR [esp+8], eax
	lea	eax, [ebp-124]
	mov	DWORD PTR [esp+4], eax
	lea	eax, [ebp-188]
	mov	DWORD PTR [esp], eax
	call	_f_func
	.loc 1 129 9 discriminator 3
	mov	DWORD PTR [esp+8], 32
	lea	eax, [ebp-156]
	mov	DWORD PTR [esp+4], eax
	lea	eax, [ebp-124]
	mov	DWORD PTR [esp], eax
	call	_byteXOR
	.loc 1 130 9 discriminator 3
	lea	eax, [ebp-156]
	lea	edx, [ebp-188]
	mov	ecx, 8
	mov	edi, eax
	mov	esi, edx
	rep movsd
	.loc 1 131 9 discriminator 3
	lea	eax, [ebp-188]
	lea	edx, [ebp-124]
	mov	ecx, 8
	mov	edi, eax
	mov	esi, edx
	rep movsd
	.loc 1 127 18 discriminator 3
	inc	DWORD PTR [ebp-28]
L2:
	.loc 1 127 5 discriminator 1
	cmp	DWORD PTR [ebp-28], 14
	jle	L3
	.loc 1 134 5
	mov	edx, DWORD PTR [ebp-28]
	mov	eax, edx
	add	eax, eax
	add	eax, edx
	sal	eax, 4
	add	eax, OFFSET FLAT:_subkey
	mov	DWORD PTR [esp+8], eax
	lea	eax, [ebp-124]
	mov	DWORD PTR [esp+4], eax
	lea	eax, [ebp-188]
	mov	DWORD PTR [esp], eax
	call	_f_func
	.loc 1 135 5
	mov	DWORD PTR [esp+8], 32
	lea	eax, [ebp-124]
	mov	DWORD PTR [esp+4], eax
	lea	eax, [ebp-156]
	mov	DWORD PTR [esp], eax
	call	_byteXOR
	.loc 1 137 5
	lea	eax, [ebp-92]
	lea	edx, [ebp-156]
	mov	ecx, 8
	mov	edi, eax
	mov	esi, edx
	rep movsd
	.loc 1 138 5
	lea	eax, [ebp-92]
	add	eax, 32
	mov	ebx, eax
	lea	eax, [ebp-188]
	mov	edx, 8
	mov	edi, ebx
	mov	esi, eax
	mov	ecx, edx
	rep movsd
	.loc 1 140 5
	lea	eax, [ebp-92]
	mov	DWORD PTR [esp+4], eax
	lea	eax, [ebp-92]
	mov	DWORD PTR [esp], eax
	call	_fp_replace
	.loc 1 141 5
	mov	DWORD PTR [esp+8], 8
	mov	eax, DWORD PTR [ebp+12]
	mov	DWORD PTR [esp+4], eax
	lea	eax, [ebp-92]
	mov	DWORD PTR [esp], eax
	call	_bit2Byte
	.loc 1 143 1
	nop
	add	esp, 204
	pop	ebx
	.cfi_restore 3
	pop	esi
	.cfi_restore 6
	pop	edi
	.cfi_restore 7
	pop	ebp
	.cfi_restore 5
	.cfi_def_cfa 4, 4
	ret
	.cfi_endproc
LFE17:
	.globl	_decryption
	.def	_decryption;	.scl	2;	.type	32;	.endef
_decryption:
LFB18:
	.loc 1 145 70
	.cfi_startproc
	push	ebp
	.cfi_def_cfa_offset 8
	.cfi_offset 5, -8
	mov	ebp, esp
	.cfi_def_cfa_register 5
	push	edi
	push	esi
	push	ebx
	sub	esp, 204
	.cfi_offset 7, -12
	.cfi_offset 6, -16
	.cfi_offset 3, -20
	.loc 1 152 5
	mov	DWORD PTR [esp+8], 8
	lea	eax, [ebp-92]
	mov	DWORD PTR [esp+4], eax
	mov	eax, DWORD PTR [ebp+8]
	mov	DWORD PTR [esp], eax
	call	_byte2Bit
	.loc 1 153 5
	lea	eax, [ebp-92]
	mov	DWORD PTR [esp+4], eax
	lea	eax, [ebp-92]
	mov	DWORD PTR [esp], eax
	call	_ip_replace
	.loc 1 155 5
	lea	eax, [ebp-156]
	lea	edx, [ebp-92]
	mov	ecx, 8
	mov	edi, eax
	mov	esi, edx
	rep movsd
	.loc 1 156 5
	lea	edx, [ebp-92]
	add	edx, 32
	lea	eax, [ebp-188]
	mov	ebx, edx
	mov	edx, 8
	mov	edi, eax
	mov	esi, ebx
	mov	ecx, edx
	rep movsd
	.loc 1 158 10
	mov	DWORD PTR [ebp-28], 15
	.loc 1 158 5
	jmp	L5
L6:
	.loc 1 159 9 discriminator 3
	mov	edx, DWORD PTR [ebp-28]
	mov	eax, edx
	add	eax, eax
	add	eax, edx
	sal	eax, 4
	add	eax, OFFSET FLAT:_subkey
	mov	DWORD PTR [esp+8], eax
	lea	eax, [ebp-124]
	mov	DWORD PTR [esp+4], eax
	lea	eax, [ebp-188]
	mov	DWORD PTR [esp], eax
	call	_f_func
	.loc 1 160 9 discriminator 3
	mov	DWORD PTR [esp+8], 32
	lea	eax, [ebp-156]
	mov	DWORD PTR [esp+4], eax
	lea	eax, [ebp-124]
	mov	DWORD PTR [esp], eax
	call	_byteXOR
	.loc 1 161 9 discriminator 3
	lea	eax, [ebp-156]
	lea	edx, [ebp-188]
	mov	ecx, 8
	mov	edi, eax
	mov	esi, edx
	rep movsd
	.loc 1 162 9 discriminator 3
	lea	eax, [ebp-188]
	lea	edx, [ebp-124]
	mov	ecx, 8
	mov	edi, eax
	mov	esi, edx
	rep movsd
	.loc 1 158 18 discriminator 3
	dec	DWORD PTR [ebp-28]
L5:
	.loc 1 158 5 discriminator 1
	cmp	DWORD PTR [ebp-28], 0
	jg	L6
	.loc 1 165 5
	mov	edx, DWORD PTR [ebp-28]
	mov	eax, edx
	add	eax, eax
	add	eax, edx
	sal	eax, 4
	add	eax, OFFSET FLAT:_subkey
	mov	DWORD PTR [esp+8], eax
	lea	eax, [ebp-124]
	mov	DWORD PTR [esp+4], eax
	lea	eax, [ebp-188]
	mov	DWORD PTR [esp], eax
	call	_f_func
	.loc 1 166 5
	mov	DWORD PTR [esp+8], 32
	lea	eax, [ebp-124]
	mov	DWORD PTR [esp+4], eax
	lea	eax, [ebp-156]
	mov	DWORD PTR [esp], eax
	call	_byteXOR
	.loc 1 168 5
	lea	eax, [ebp-92]
	lea	edx, [ebp-156]
	mov	ecx, 8
	mov	edi, eax
	mov	esi, edx
	rep movsd
	.loc 1 169 5
	lea	eax, [ebp-92]
	add	eax, 32
	mov	ebx, eax
	lea	eax, [ebp-188]
	mov	edx, 8
	mov	edi, ebx
	mov	esi, eax
	mov	ecx, edx
	rep movsd
	.loc 1 171 5
	lea	eax, [ebp-92]
	mov	DWORD PTR [esp+4], eax
	lea	eax, [ebp-92]
	mov	DWORD PTR [esp], eax
	call	_fp_replace
	.loc 1 172 5
	mov	DWORD PTR [esp+8], 8
	mov	eax, DWORD PTR [ebp+12]
	mov	DWORD PTR [esp+4], eax
	lea	eax, [ebp-92]
	mov	DWORD PTR [esp], eax
	call	_bit2Byte
	.loc 1 174 1
	nop
	add	esp, 204
	pop	ebx
	.cfi_restore 3
	pop	esi
	.cfi_restore 6
	pop	edi
	.cfi_restore 7
	pop	ebp
	.cfi_restore 5
	.cfi_def_cfa 4, 4
	ret
	.cfi_endproc
LFE18:
	.globl	_byte2Bit
	.def	_byte2Bit;	.scl	2;	.type	32;	.endef
_byte2Bit:
LFB19:
	.loc 1 176 60
	.cfi_startproc
	push	ebp
	.cfi_def_cfa_offset 8
	.cfi_offset 5, -8
	mov	ebp, esp
	.cfi_def_cfa_register 5
	sub	esp, 16
	.loc 1 178 10
	mov	DWORD PTR [ebp-4], 0
	.loc 1 178 5
	jmp	L8
L11:
	.loc 1 179 14
	mov	DWORD PTR [ebp-8], 0
	.loc 1 179 9
	jmp	L9
L10:
	.loc 1 180 29 discriminator 3
	mov	edx, DWORD PTR [ebp-4]
	mov	eax, DWORD PTR [ebp+8]
	add	eax, edx
	mov	al, BYTE PTR [eax]
	movzx	edx, al
	.loc 1 180 36 discriminator 3
	mov	eax, 7
	sub	eax, DWORD PTR [ebp-8]
	.loc 1 180 32 discriminator 3
	mov	cl, al
	sar	edx, cl
	mov	eax, edx
	.loc 1 180 40 discriminator 3
	mov	dl, al
	.loc 1 180 18 discriminator 3
	mov	eax, DWORD PTR [ebp-4]
	lea	ecx, [0+eax*8]
	.loc 1 180 20 discriminator 3
	mov	eax, DWORD PTR [ebp-8]
	add	eax, ecx
	mov	ecx, eax
	.loc 1 180 16 discriminator 3
	mov	eax, DWORD PTR [ebp+12]
	add	eax, ecx
	.loc 1 180 40 discriminator 3
	and	edx, 1
	.loc 1 180 24 discriminator 3
	mov	BYTE PTR [eax], dl
	.loc 1 179 21 discriminator 3
	inc	DWORD PTR [ebp-8]
L9:
	.loc 1 179 9 discriminator 1
	cmp	DWORD PTR [ebp-8], 7
	jle	L10
	.loc 1 178 19 discriminator 2
	inc	DWORD PTR [ebp-4]
L8:
	.loc 1 178 5 discriminator 1
	mov	eax, DWORD PTR [ebp-4]
	cmp	eax, DWORD PTR [ebp+16]
	jl	L11
	.loc 1 182 1
	nop
	leave
	.cfi_restore 5
	.cfi_def_cfa 4, 4
	ret
	.cfi_endproc
LFE19:
	.globl	_bit2Byte
	.def	_bit2Byte;	.scl	2;	.type	32;	.endef
_bit2Byte:
LFB20:
	.loc 1 184 60
	.cfi_startproc
	push	ebp
	.cfi_def_cfa_offset 8
	.cfi_offset 5, -8
	mov	ebp, esp
	.cfi_def_cfa_register 5
	sub	esp, 16
	.loc 1 187 10
	mov	DWORD PTR [ebp-4], 0
	.loc 1 187 5
	jmp	L13
L16:
	.loc 1 188 20
	mov	eax, DWORD PTR [ebp-4]
	sal	eax, 3
	mov	edx, eax
	.loc 1 188 18
	mov	eax, DWORD PTR [ebp+8]
	add	eax, edx
	mov	al, BYTE PTR [eax]
	.loc 1 188 14
	and	eax, 1
	mov	BYTE PTR [ebp-9], al
	.loc 1 189 14
	mov	DWORD PTR [ebp-8], 1
	.loc 1 189 9
	jmp	L14
L15:
	.loc 1 190 18 discriminator 3
	sal	BYTE PTR [ebp-9]
	.loc 1 191 30 discriminator 3
	mov	eax, DWORD PTR [ebp-4]
	lea	edx, [0+eax*8]
	.loc 1 191 32 discriminator 3
	mov	eax, DWORD PTR [ebp-8]
	add	eax, edx
	mov	edx, eax
	.loc 1 191 28 discriminator 3
	mov	eax, DWORD PTR [ebp+8]
	add	eax, edx
	mov	al, BYTE PTR [eax]
	.loc 1 191 35 discriminator 3
	and	eax, 1
	.loc 1 191 18 discriminator 3
	add	BYTE PTR [ebp-9], al
	.loc 1 189 21 discriminator 3
	inc	DWORD PTR [ebp-8]
L14:
	.loc 1 189 9 discriminator 1
	cmp	DWORD PTR [ebp-8], 7
	jle	L15
	.loc 1 193 12 discriminator 2
	mov	edx, DWORD PTR [ebp-4]
	mov	eax, DWORD PTR [ebp+12]
	add	edx, eax
	.loc 1 193 15 discriminator 2
	mov	al, BYTE PTR [ebp-9]
	mov	BYTE PTR [edx], al
	.loc 1 187 19 discriminator 2
	inc	DWORD PTR [ebp-4]
L13:
	.loc 1 187 5 discriminator 1
	mov	eax, DWORD PTR [ebp-4]
	cmp	eax, DWORD PTR [ebp+16]
	jl	L16
	.loc 1 195 1
	nop
	leave
	.cfi_restore 5
	.cfi_def_cfa 4, 4
	ret
	.cfi_endproc
LFE20:
	.globl	_ip_replace
	.def	_ip_replace;	.scl	2;	.type	32;	.endef
_ip_replace:
LFB21:
	.loc 1 198 55
	.cfi_startproc
	push	ebp
	.cfi_def_cfa_offset 8
	.cfi_offset 5, -8
	mov	ebp, esp
	.cfi_def_cfa_register 5
	push	edi
	push	esi
	push	ebx
	sub	esp, 80
	.cfi_offset 7, -12
	.cfi_offset 6, -16
	.cfi_offset 3, -20
	.loc 1 201 5
	mov	edx, DWORD PTR [ebp+8]
	lea	eax, [ebp-80]
	mov	ebx, edx
	mov	edx, 16
	mov	edi, eax
	mov	esi, ebx
	mov	ecx, edx
	rep movsd
	.loc 1 203 10
	mov	DWORD PTR [ebp-16], 0
	.loc 1 203 5
	jmp	L18
L19:
	.loc 1 204 31 discriminator 3
	mov	eax, DWORD PTR [ebp-16]
	add	eax, OFFSET FLAT:_IP_Table
	mov	al, BYTE PTR [eax]
	movsx	eax, al
	.loc 1 204 34 discriminator 3
	dec	eax
	.loc 1 204 12 discriminator 3
	mov	ecx, DWORD PTR [ebp-16]
	mov	edx, DWORD PTR [ebp+12]
	add	edx, ecx
	.loc 1 204 22 discriminator 3
	mov	al, BYTE PTR [ebp-80+eax]
	.loc 1 204 16 discriminator 3
	mov	BYTE PTR [edx], al
	.loc 1 203 18 discriminator 3
	inc	DWORD PTR [ebp-16]
L18:
	.loc 1 203 5 discriminator 1
	cmp	DWORD PTR [ebp-16], 63
	jle	L19
	.loc 1 207 1
	nop
	add	esp, 80
	pop	ebx
	.cfi_restore 3
	pop	esi
	.cfi_restore 6
	pop	edi
	.cfi_restore 7
	pop	ebp
	.cfi_restore 5
	.cfi_def_cfa 4, 4
	ret
	.cfi_endproc
LFE21:
	.globl	_fp_replace
	.def	_fp_replace;	.scl	2;	.type	32;	.endef
_fp_replace:
LFB22:
	.loc 1 209 54
	.cfi_startproc
	push	ebp
	.cfi_def_cfa_offset 8
	.cfi_offset 5, -8
	mov	ebp, esp
	.cfi_def_cfa_register 5
	push	edi
	push	esi
	push	ebx
	sub	esp, 80
	.cfi_offset 7, -12
	.cfi_offset 6, -16
	.cfi_offset 3, -20
	.loc 1 213 5
	mov	edx, DWORD PTR [ebp+8]
	lea	eax, [ebp-80]
	mov	ebx, edx
	mov	edx, 16
	mov	edi, eax
	mov	esi, ebx
	mov	ecx, edx
	rep movsd
	.loc 1 214 10
	mov	DWORD PTR [ebp-16], 0
	.loc 1 214 5
	jmp	L21
L22:
	.loc 1 215 32 discriminator 3
	mov	eax, DWORD PTR [ebp-16]
	add	eax, OFFSET FLAT:_IPR_Table
	mov	al, BYTE PTR [eax]
	movsx	eax, al
	.loc 1 215 35 discriminator 3
	dec	eax
	.loc 1 215 12 discriminator 3
	mov	ecx, DWORD PTR [ebp-16]
	mov	edx, DWORD PTR [ebp+12]
	add	edx, ecx
	.loc 1 215 22 discriminator 3
	mov	al, BYTE PTR [ebp-80+eax]
	.loc 1 215 16 discriminator 3
	mov	BYTE PTR [edx], al
	.loc 1 214 18 discriminator 3
	inc	DWORD PTR [ebp-16]
L21:
	.loc 1 214 5 discriminator 1
	cmp	DWORD PTR [ebp-16], 63
	jle	L22
	.loc 1 216 1
	nop
	add	esp, 80
	pop	ebx
	.cfi_restore 3
	pop	esi
	.cfi_restore 6
	pop	edi
	.cfi_restore 7
	pop	ebp
	.cfi_restore 5
	.cfi_def_cfa 4, 4
	ret
	.cfi_endproc
LFE22:
	.globl	_e_expand
	.def	_e_expand;	.scl	2;	.type	32;	.endef
_e_expand:
LFB23:
	.loc 1 218 54
	.cfi_startproc
	push	ebp
	.cfi_def_cfa_offset 8
	.cfi_offset 5, -8
	mov	ebp, esp
	.cfi_def_cfa_register 5
	push	edi
	push	esi
	push	ebx
	sub	esp, 64
	.cfi_offset 7, -12
	.cfi_offset 6, -16
	.cfi_offset 3, -20
	.loc 1 222 5
	mov	edx, DWORD PTR [ebp+8]
	lea	eax, [ebp-64]
	mov	ebx, edx
	mov	edx, 12
	mov	edi, eax
	mov	esi, ebx
	mov	ecx, edx
	rep movsd
	.loc 1 223 10
	mov	DWORD PTR [ebp-16], 0
	.loc 1 223 5
	jmp	L24
L25:
	.loc 1 224 30 discriminator 3
	mov	eax, DWORD PTR [ebp-16]
	add	eax, OFFSET FLAT:_E_Table
	mov	al, BYTE PTR [eax]
	movsx	eax, al
	.loc 1 224 33 discriminator 3
	dec	eax
	.loc 1 224 12 discriminator 3
	mov	ecx, DWORD PTR [ebp-16]
	mov	edx, DWORD PTR [ebp+12]
	add	edx, ecx
	.loc 1 224 22 discriminator 3
	mov	al, BYTE PTR [ebp-64+eax]
	.loc 1 224 16 discriminator 3
	mov	BYTE PTR [edx], al
	.loc 1 223 18 discriminator 3
	inc	DWORD PTR [ebp-16]
L24:
	.loc 1 223 5 discriminator 1
	cmp	DWORD PTR [ebp-16], 47
	jle	L25
	.loc 1 225 1
	nop
	add	esp, 64
	pop	ebx
	.cfi_restore 3
	pop	esi
	.cfi_restore 6
	pop	edi
	.cfi_restore 7
	pop	ebp
	.cfi_restore 5
	.cfi_def_cfa 4, 4
	ret
	.cfi_endproc
LFE23:
	.globl	_s_replace
	.def	_s_replace;	.scl	2;	.type	32;	.endef
_s_replace:
LFB24:
	.loc 1 227 54
	.cfi_startproc
	push	ebp
	.cfi_def_cfa_offset 8
	.cfi_offset 5, -8
	mov	ebp, esp
	.cfi_def_cfa_register 5
	sub	esp, 32
	.loc 1 231 10
	mov	DWORD PTR [ebp-4], 0
	.loc 1 231 14
	mov	DWORD PTR [ebp-8], 0
	.loc 1 231 5
	jmp	L27
L28:
	.loc 1 232 21 discriminator 3
	mov	edx, DWORD PTR [ebp-4]
	mov	eax, edx
	add	eax, eax
	add	eax, edx
	add	eax, eax
	mov	edx, eax
	.loc 1 232 19 discriminator 3
	mov	eax, DWORD PTR [ebp+8]
	add	eax, edx
	mov	al, BYTE PTR [eax]
	movzx	eax, al
	.loc 1 232 24 discriminator 3
	add	eax, eax
	mov	ecx, eax
	.loc 1 232 34 discriminator 3
	mov	edx, DWORD PTR [ebp-4]
	mov	eax, edx
	add	eax, eax
	add	eax, edx
	add	eax, eax
	.loc 1 232 32 discriminator 3
	lea	edx, [eax+5]
	mov	eax, DWORD PTR [ebp+8]
	add	eax, edx
	mov	al, BYTE PTR [eax]
	movzx	eax, al
	.loc 1 232 28 discriminator 3
	or	eax, ecx
	.loc 1 232 13 discriminator 3
	and	eax, 3
	mov	DWORD PTR [ebp-12], eax
	.loc 1 233 21 discriminator 3
	mov	edx, DWORD PTR [ebp-4]
	mov	eax, edx
	add	eax, eax
	add	eax, edx
	add	eax, eax
	.loc 1 233 19 discriminator 3
	lea	edx, [eax+1]
	mov	eax, DWORD PTR [ebp+8]
	add	eax, edx
	mov	al, BYTE PTR [eax]
	movzx	eax, al
	.loc 1 233 26 discriminator 3
	lea	ecx, [0+eax*8]
	.loc 1 233 36 discriminator 3
	mov	edx, DWORD PTR [ebp-4]
	mov	eax, edx
	add	eax, eax
	add	eax, edx
	add	eax, eax
	.loc 1 233 34 discriminator 3
	lea	edx, [eax+2]
	mov	eax, DWORD PTR [ebp+8]
	add	eax, edx
	mov	al, BYTE PTR [eax]
	movzx	eax, al
	.loc 1 233 41 discriminator 3
	sal	eax, 2
	.loc 1 233 30 discriminator 3
	or	ecx, eax
	.loc 1 233 51 discriminator 3
	mov	edx, DWORD PTR [ebp-4]
	mov	eax, edx
	add	eax, eax
	add	eax, edx
	add	eax, eax
	.loc 1 233 49 discriminator 3
	lea	edx, [eax+3]
	mov	eax, DWORD PTR [ebp+8]
	add	eax, edx
	mov	al, BYTE PTR [eax]
	movzx	eax, al
	.loc 1 233 56 discriminator 3
	add	eax, eax
	.loc 1 233 45 discriminator 3
	or	ecx, eax
	.loc 1 233 66 discriminator 3
	mov	edx, DWORD PTR [ebp-4]
	mov	eax, edx
	add	eax, eax
	add	eax, edx
	add	eax, eax
	.loc 1 233 64 discriminator 3
	lea	edx, [eax+4]
	mov	eax, DWORD PTR [ebp+8]
	add	eax, edx
	mov	al, BYTE PTR [eax]
	movzx	eax, al
	.loc 1 233 60 discriminator 3
	or	eax, ecx
	.loc 1 233 13 discriminator 3
	and	eax, 15
	mov	DWORD PTR [ebp-16], eax
	.loc 1 234 29 discriminator 3
	mov	eax, DWORD PTR [ebp-4]
	lea	edx, [0+eax*4]
	mov	eax, DWORD PTR [ebp-12]
	add	eax, edx
	sal	eax, 4
	mov	edx, eax
	mov	eax, DWORD PTR [ebp-16]
	add	eax, edx
	add	eax, OFFSET FLAT:_S_Box
	mov	al, BYTE PTR [eax]
	.loc 1 234 14 discriminator 3
	and	eax, 15
	mov	BYTE PTR [ebp-17], al
	.loc 1 235 27 discriminator 3
	mov	al, BYTE PTR [ebp-17]
	sar	al, 3
	mov	cl, al
	.loc 1 235 12 discriminator 3
	mov	edx, DWORD PTR [ebp-8]
	mov	eax, DWORD PTR [ebp+12]
	add	eax, edx
	.loc 1 235 27 discriminator 3
	and	ecx, 1
	mov	dl, cl
	.loc 1 235 16 discriminator 3
	mov	BYTE PTR [eax], dl
	.loc 1 236 29 discriminator 3
	mov	al, BYTE PTR [ebp-17]
	sar	al, 2
	mov	dl, al
	.loc 1 236 12 discriminator 3
	mov	eax, DWORD PTR [ebp-8]
	lea	ecx, [eax+1]
	mov	eax, DWORD PTR [ebp+12]
	add	eax, ecx
	.loc 1 236 29 discriminator 3
	and	edx, 1
	.loc 1 236 18 discriminator 3
	mov	BYTE PTR [eax], dl
	.loc 1 237 29 discriminator 3
	mov	al, BYTE PTR [ebp-17]
	sar	al
	mov	dl, al
	.loc 1 237 12 discriminator 3
	mov	eax, DWORD PTR [ebp-8]
	lea	ecx, [eax+2]
	mov	eax, DWORD PTR [ebp+12]
	add	eax, ecx
	.loc 1 237 29 discriminator 3
	and	edx, 1
	.loc 1 237 18 discriminator 3
	mov	BYTE PTR [eax], dl
	.loc 1 238 26 discriminator 3
	mov	dl, BYTE PTR [ebp-17]
	.loc 1 238 12 discriminator 3
	mov	eax, DWORD PTR [ebp-8]
	lea	ecx, [eax+3]
	mov	eax, DWORD PTR [ebp+12]
	add	eax, ecx
	.loc 1 238 26 discriminator 3
	and	edx, 1
	.loc 1 238 18 discriminator 3
	mov	BYTE PTR [eax], dl
	.loc 1 239 10 discriminator 3
	add	DWORD PTR [ebp-8], 4
	.loc 1 231 21 discriminator 3
	inc	DWORD PTR [ebp-4]
L27:
	.loc 1 231 5 discriminator 1
	cmp	DWORD PTR [ebp-4], 7
	jle	L28
	.loc 1 241 1
	nop
	leave
	.cfi_restore 5
	.cfi_def_cfa 4, 4
	ret
	.cfi_endproc
LFE24:
	.globl	_p_replace
	.def	_p_replace;	.scl	2;	.type	32;	.endef
_p_replace:
LFB25:
	.loc 1 243 55
	.cfi_startproc
	push	ebp
	.cfi_def_cfa_offset 8
	.cfi_offset 5, -8
	mov	ebp, esp
	.cfi_def_cfa_register 5
	push	edi
	push	esi
	push	ebx
	sub	esp, 48
	.cfi_offset 7, -12
	.cfi_offset 6, -16
	.cfi_offset 3, -20
	.loc 1 247 5
	mov	edx, DWORD PTR [ebp+8]
	lea	eax, [ebp-48]
	mov	ebx, edx
	mov	edx, 8
	mov	edi, eax
	mov	esi, ebx
	mov	ecx, edx
	rep movsd
	.loc 1 248 10
	mov	DWORD PTR [ebp-16], 0
	.loc 1 248 5
	jmp	L30
L31:
	.loc 1 249 30 discriminator 3
	mov	eax, DWORD PTR [ebp-16]
	add	eax, OFFSET FLAT:_P_Table
	mov	al, BYTE PTR [eax]
	movsx	eax, al
	.loc 1 249 33 discriminator 3
	dec	eax
	.loc 1 249 12 discriminator 3
	mov	ecx, DWORD PTR [ebp-16]
	mov	edx, DWORD PTR [ebp+12]
	add	edx, ecx
	.loc 1 249 22 discriminator 3
	mov	al, BYTE PTR [ebp-48+eax]
	.loc 1 249 16 discriminator 3
	mov	BYTE PTR [edx], al
	.loc 1 248 18 discriminator 3
	inc	DWORD PTR [ebp-16]
L30:
	.loc 1 248 5 discriminator 1
	cmp	DWORD PTR [ebp-16], 31
	jle	L31
	.loc 1 251 1
	nop
	add	esp, 48
	pop	ebx
	.cfi_restore 3
	pop	esi
	.cfi_restore 6
	pop	edi
	.cfi_restore 7
	pop	ebp
	.cfi_restore 5
	.cfi_def_cfa 4, 4
	ret
	.cfi_endproc
LFE25:
	.globl	_byteXOR
	.def	_byteXOR;	.scl	2;	.type	32;	.endef
_byteXOR:
LFB26:
	.loc 1 253 56
	.cfi_startproc
	push	ebp
	.cfi_def_cfa_offset 8
	.cfi_offset 5, -8
	mov	ebp, esp
	.cfi_def_cfa_register 5
	sub	esp, 16
	.loc 1 255 10
	mov	DWORD PTR [ebp-4], 0
	.loc 1 255 5
	jmp	L33
L34:
	.loc 1 256 18 discriminator 3
	mov	edx, DWORD PTR [ebp-4]
	mov	eax, DWORD PTR [ebp+8]
	add	eax, edx
	mov	dl, BYTE PTR [eax]
	.loc 1 256 23 discriminator 3
	mov	ecx, DWORD PTR [ebp-4]
	mov	eax, DWORD PTR [ebp+12]
	add	eax, ecx
	mov	al, BYTE PTR [eax]
	.loc 1 256 27 discriminator 3
	lea	ecx, [edx+eax]
	.loc 1 256 10 discriminator 3
	mov	edx, DWORD PTR [ebp-4]
	mov	eax, DWORD PTR [ebp+8]
	add	eax, edx
	.loc 1 256 27 discriminator 3
	and	ecx, 1
	mov	dl, cl
	.loc 1 256 14 discriminator 3
	mov	BYTE PTR [eax], dl
	.loc 1 255 19 discriminator 3
	inc	DWORD PTR [ebp-4]
L33:
	.loc 1 255 5 discriminator 1
	mov	eax, DWORD PTR [ebp-4]
	cmp	eax, DWORD PTR [ebp+16]
	jl	L34
	.loc 1 258 1
	nop
	leave
	.cfi_restore 5
	.cfi_def_cfa 4, 4
	ret
	.cfi_endproc
LFE26:
	.globl	_f_func
	.def	_f_func;	.scl	2;	.type	32;	.endef
_f_func:
LFB27:
	.loc 1 260 71
	.cfi_startproc
	push	ebp
	.cfi_def_cfa_offset 8
	.cfi_offset 5, -8
	mov	ebp, esp
	.cfi_def_cfa_register 5
	push	edi
	push	esi
	push	ebx
	sub	esp, 92
	.cfi_offset 7, -12
	.cfi_offset 6, -16
	.cfi_offset 3, -20
	.loc 1 264 5
	lea	eax, [ebp-60]
	mov	DWORD PTR [esp+4], eax
	mov	eax, DWORD PTR [ebp+8]
	mov	DWORD PTR [esp], eax
	call	_e_expand
	.loc 1 265 5
	mov	DWORD PTR [esp+8], 48
	mov	eax, DWORD PTR [ebp+16]
	mov	DWORD PTR [esp+4], eax
	lea	eax, [ebp-60]
	mov	DWORD PTR [esp], eax
	call	_byteXOR
	.loc 1 266 5
	lea	eax, [ebp-92]
	mov	DWORD PTR [esp+4], eax
	lea	eax, [ebp-60]
	mov	DWORD PTR [esp], eax
	call	_s_replace
	.loc 1 267 5
	lea	eax, [ebp-92]
	mov	DWORD PTR [esp+4], eax
	lea	eax, [ebp-92]
	mov	DWORD PTR [esp], eax
	call	_p_replace
	.loc 1 268 5
	mov	eax, DWORD PTR [ebp+12]
	mov	ebx, eax
	lea	eax, [ebp-92]
	mov	edx, 8
	mov	edi, ebx
	mov	esi, eax
	mov	ecx, edx
	rep movsd
	.loc 1 269 1
	nop
	add	esp, 92
	pop	ebx
	.cfi_restore 3
	pop	esi
	.cfi_restore 6
	pop	edi
	.cfi_restore 7
	pop	ebp
	.cfi_restore 5
	.cfi_def_cfa 4, 4
	ret
	.cfi_endproc
LFE27:
	.globl	_pc1_replace
	.def	_pc1_replace;	.scl	2;	.type	32;	.endef
_pc1_replace:
LFB28:
	.loc 1 271 57
	.cfi_startproc
	push	ebp
	.cfi_def_cfa_offset 8
	.cfi_offset 5, -8
	mov	ebp, esp
	.cfi_def_cfa_register 5
	sub	esp, 16
	.loc 1 273 10
	mov	DWORD PTR [ebp-4], 0
	.loc 1 273 5
	jmp	L37
L38:
	.loc 1 274 28 discriminator 3
	mov	eax, DWORD PTR [ebp-4]
	add	eax, OFFSET FLAT:_PC1_Table
	mov	al, BYTE PTR [eax]
	movsx	eax, al
	.loc 1 274 18 discriminator 3
	lea	edx, [eax-1]
	mov	eax, DWORD PTR [ebp+8]
	add	eax, edx
	.loc 1 274 12 discriminator 3
	mov	ecx, DWORD PTR [ebp-4]
	mov	edx, DWORD PTR [ebp+12]
	add	edx, ecx
	.loc 1 274 18 discriminator 3
	mov	al, BYTE PTR [eax]
	.loc 1 274 15 discriminator 3
	mov	BYTE PTR [edx], al
	.loc 1 273 18 discriminator 3
	inc	DWORD PTR [ebp-4]
L37:
	.loc 1 273 5 discriminator 1
	cmp	DWORD PTR [ebp-4], 55
	jle	L38
	.loc 1 275 1
	nop
	leave
	.cfi_restore 5
	.cfi_def_cfa 4, 4
	ret
	.cfi_endproc
LFE28:
	.globl	_pc2_replace
	.def	_pc2_replace;	.scl	2;	.type	32;	.endef
_pc2_replace:
LFB29:
	.loc 1 277 55
	.cfi_startproc
	push	ebp
	.cfi_def_cfa_offset 8
	.cfi_offset 5, -8
	mov	ebp, esp
	.cfi_def_cfa_register 5
	sub	esp, 16
	.loc 1 279 10
	mov	DWORD PTR [ebp-4], 0
	.loc 1 279 5
	jmp	L40
L41:
	.loc 1 280 30 discriminator 3
	mov	eax, DWORD PTR [ebp-4]
	add	eax, OFFSET FLAT:_PC2_Table
	mov	al, BYTE PTR [eax]
	movsx	eax, al
	.loc 1 280 20 discriminator 3
	lea	edx, [eax-1]
	mov	eax, DWORD PTR [ebp+8]
	add	eax, edx
	.loc 1 280 12 discriminator 3
	mov	ecx, DWORD PTR [ebp-4]
	mov	edx, DWORD PTR [ebp+12]
	add	edx, ecx
	.loc 1 280 20 discriminator 3
	mov	al, BYTE PTR [eax]
	.loc 1 280 16 discriminator 3
	mov	BYTE PTR [edx], al
	.loc 1 279 18 discriminator 3
	inc	DWORD PTR [ebp-4]
L40:
	.loc 1 279 5 discriminator 1
	cmp	DWORD PTR [ebp-4], 47
	jle	L41
	.loc 1 281 1
	nop
	leave
	.cfi_restore 5
	.cfi_def_cfa 4, 4
	ret
	.cfi_endproc
LFE29:
	.globl	_shift_left
	.def	_shift_left;	.scl	2;	.type	32;	.endef
_shift_left:
LFB30:
	.loc 1 283 62
	.cfi_startproc
	push	ebp
	.cfi_def_cfa_offset 8
	.cfi_offset 5, -8
	mov	ebp, esp
	.cfi_def_cfa_register 5
	push	edi
	push	esi
	push	ebx
	sub	esp, 48
	.cfi_offset 7, -12
	.cfi_offset 6, -16
	.cfi_offset 3, -20
	.loc 1 287 5
	mov	edx, DWORD PTR [ebp+8]
	lea	eax, [ebp-48]
	mov	ebx, edx
	mov	edx, 7
	mov	edi, eax
	mov	esi, ebx
	mov	ecx, edx
	rep movsd
	.loc 1 288 10
	mov	eax, DWORD PTR [ebp+16]
	mov	DWORD PTR [ebp-16], eax
	.loc 1 288 16
	mov	DWORD PTR [ebp-20], 0
	.loc 1 288 5
	jmp	L43
L44:
	.loc 1 289 14 discriminator 3
	mov	eax, DWORD PTR [ebp-20]
	lea	edx, [eax+1]
	mov	DWORD PTR [ebp-20], edx
	mov	edx, eax
	.loc 1 289 12 discriminator 3
	mov	eax, DWORD PTR [ebp+12]
	add	edx, eax
	.loc 1 289 24 discriminator 3
	lea	ecx, [ebp-48]
	mov	eax, DWORD PTR [ebp-16]
	add	eax, ecx
	mov	al, BYTE PTR [eax]
	.loc 1 289 18 discriminator 3
	mov	BYTE PTR [edx], al
	.loc 1 288 26 discriminator 3
	inc	DWORD PTR [ebp-16]
L43:
	.loc 1 288 5 discriminator 1
	cmp	DWORD PTR [ebp-16], 27
	jle	L44
	.loc 1 290 10
	mov	DWORD PTR [ebp-16], 0
	.loc 1 290 5
	jmp	L45
L46:
	.loc 1 291 14 discriminator 3
	mov	eax, DWORD PTR [ebp-20]
	lea	edx, [eax+1]
	mov	DWORD PTR [ebp-20], edx
	mov	edx, eax
	.loc 1 291 12 discriminator 3
	mov	eax, DWORD PTR [ebp+12]
	add	edx, eax
	.loc 1 291 24 discriminator 3
	lea	ecx, [ebp-48]
	mov	eax, DWORD PTR [ebp-16]
	add	eax, ecx
	mov	al, BYTE PTR [eax]
	.loc 1 291 18 discriminator 3
	mov	BYTE PTR [edx], al
	.loc 1 290 21 discriminator 3
	inc	DWORD PTR [ebp-16]
L45:
	.loc 1 290 5 discriminator 1
	mov	eax, DWORD PTR [ebp-16]
	cmp	eax, DWORD PTR [ebp+16]
	jl	L46
	.loc 1 292 1
	nop
	add	esp, 48
	pop	ebx
	.cfi_restore 3
	pop	esi
	.cfi_restore 6
	pop	edi
	.cfi_restore 7
	pop	ebp
	.cfi_restore 5
	.cfi_def_cfa 4, 4
	ret
	.cfi_endproc
LFE30:
	.globl	_get_subkey
	.def	_get_subkey;	.scl	2;	.type	32;	.endef
_get_subkey:
LFB31:
	.loc 1 294 18
	.cfi_startproc
	push	ebp
	.cfi_def_cfa_offset 8
	.cfi_offset 5, -8
	mov	ebp, esp
	.cfi_def_cfa_register 5
	push	edi
	push	esi
	push	ebx
	sub	esp, 188
	.cfi_offset 7, -12
	.cfi_offset 6, -16
	.cfi_offset 3, -20
	.loc 1 300 5
	mov	DWORD PTR [esp+8], 8
	lea	eax, [ebp-80]
	mov	DWORD PTR [esp+4], eax
	mov	DWORD PTR [esp], OFFSET FLAT:_KEY
	call	_byte2Bit
	.loc 1 301 5
	lea	eax, [ebp-136]
	mov	DWORD PTR [esp+4], eax
	lea	eax, [ebp-80]
	mov	DWORD PTR [esp], eax
	call	_pc1_replace
	.loc 1 303 10
	mov	DWORD PTR [ebp-16], 0
	.loc 1 303 5
	jmp	L48
L49:
	.loc 1 304 52 discriminator 3
	mov	eax, DWORD PTR [ebp-16]
	add	eax, OFFSET FLAT:_LOOP_Table
	mov	al, BYTE PTR [eax]
	.loc 1 304 9 discriminator 3
	movsx	eax, al
	mov	DWORD PTR [esp+8], eax
	lea	eax, [ebp-136]
	mov	DWORD PTR [esp+4], eax
	lea	eax, [ebp-136]
	mov	DWORD PTR [esp], eax
	call	_shift_left
	.loc 1 305 58 discriminator 3
	mov	eax, DWORD PTR [ebp-16]
	add	eax, OFFSET FLAT:_LOOP_Table
	mov	al, BYTE PTR [eax]
	.loc 1 305 9 discriminator 3
	movsx	ecx, al
	lea	edx, [ebp-136]
	add	edx, 28
	lea	eax, [ebp-136]
	add	eax, 28
	mov	DWORD PTR [esp+8], ecx
	mov	DWORD PTR [esp+4], edx
	mov	DWORD PTR [esp], eax
	call	_shift_left
	.loc 1 306 9 discriminator 3
	lea	eax, [ebp-184]
	mov	DWORD PTR [esp+4], eax
	lea	eax, [ebp-136]
	mov	DWORD PTR [esp], eax
	call	_pc2_replace
	.loc 1 307 16 discriminator 3
	mov	edx, DWORD PTR [ebp-16]
	mov	eax, edx
	add	eax, eax
	add	eax, edx
	sal	eax, 4
	add	eax, OFFSET FLAT:_subkey
	.loc 1 307 9 discriminator 3
	mov	ebx, eax
	lea	eax, [ebp-184]
	mov	edx, 12
	mov	edi, ebx
	mov	esi, eax
	mov	ecx, edx
	rep movsd
	.loc 1 303 18 discriminator 3
	inc	DWORD PTR [ebp-16]
L48:
	.loc 1 303 5 discriminator 1
	cmp	DWORD PTR [ebp-16], 15
	jle	L49
	.loc 1 309 1
	nop
	add	esp, 188
	pop	ebx
	.cfi_restore 3
	pop	esi
	.cfi_restore 6
	pop	edi
	.cfi_restore 7
	pop	ebp
	.cfi_restore 5
	.cfi_def_cfa 4, 4
	ret
	.cfi_endproc
LFE31:
	.def	___main;	.scl	2;	.type	32;	.endef
	.section .rdata,"dr"
LC0:
	.ascii "Please input your FLAG:\0"
LC1:
	.ascii "%s\0"
	.align 4
LC2:
	.ascii "\12*-*-* any plaintext with its length not being equal to 8 will be ignored! *-*-*\12\0"
LC3:
	.ascii "pause\0"
LC4:
	.ascii "\12sorry to say 'Wrong'!!!\12\0"
	.align 4
LC5:
	.ascii "\12well done!!!\12------------------------\12\0"
	.text
	.globl	_main
	.def	_main;	.scl	2;	.type	32;	.endef
_main:
LFB32:
	.loc 1 312 1
	.cfi_startproc
	push	ebp
	.cfi_def_cfa_offset 8
	.cfi_offset 5, -8
	mov	ebp, esp
	.cfi_def_cfa_register 5
	and	esp, -16
	sub	esp, 48
	.loc 1 312 1
	call	___main
LVL0:
	.loc 1 316 9
	mov	DWORD PTR [esp+44], 0
	.loc 1 318 2
	mov	DWORD PTR [esp], OFFSET FLAT:LC0
	call	_puts
	.loc 1 319 2
	lea	eax, [esp+24]
	mov	DWORD PTR [esp+4], eax
	mov	DWORD PTR [esp], OFFSET FLAT:LC1
	call	_scanf
	.loc 1 321 5
	lea	eax, [esp+24]
	mov	DWORD PTR [esp], eax
	call	_strlen
	.loc 1 321 4
	cmp	eax, 8
	je	L51
	.loc 1 322 6
	mov	DWORD PTR [esp], OFFSET FLAT:LC2
	call	_puts
	.loc 1 324 6
	mov	DWORD PTR [esp], OFFSET FLAT:LC3
	call	_system
	.loc 1 325 10
	mov	eax, -1
	jmp	L56
L51:
	.loc 1 328 5
	call	_get_subkey
	.loc 1 329 5
	lea	eax, [esp+16]
	mov	DWORD PTR [esp+4], eax
	lea	eax, [esp+24]
	mov	DWORD PTR [esp], eax
	call	_encryption
	.loc 1 331 10
	mov	DWORD PTR [esp+44], 0
	.loc 1 331 5
	jmp	L53
L55:
	.loc 1 332 22
	lea	edx, [esp+16]
	mov	eax, DWORD PTR [esp+44]
	add	eax, edx
	mov	dl, BYTE PTR [eax]
	.loc 1 332 33
	mov	eax, DWORD PTR [esp+44]
	add	eax, OFFSET FLAT:_result
	mov	al, BYTE PTR [eax]
	.loc 1 332 11
	cmp	dl, al
	je	L54
	.loc 1 333 4
	mov	DWORD PTR [esp], OFFSET FLAT:LC4
	call	_puts
	.loc 1 335 4
	mov	DWORD PTR [esp], OFFSET FLAT:LC3
	call	_system
	.loc 1 336 11
	mov	eax, -2
	jmp	L56
L54:
	.loc 1 331 17 discriminator 2
	inc	DWORD PTR [esp+44]
L53:
	.loc 1 331 5 discriminator 1
	cmp	DWORD PTR [esp+44], 7
	jle	L55
	.loc 1 339 2
	mov	DWORD PTR [esp], OFFSET FLAT:LC5
	call	_puts
	.loc 1 349 2
	mov	DWORD PTR [esp], OFFSET FLAT:LC3
	call	_system
	.loc 1 350 12
	mov	eax, 0
L56:
	.loc 1 351 1 discriminator 1
	leave
	.cfi_restore 5
	.cfi_def_cfa 4, 4
	ret
	.cfi_endproc
LFE32:
Letext0:
	.file 2 "C:/Program Files (x86)/CodeBlocks/MinGW/i686-w64-mingw32/include/stdio.h"
	.file 3 "C:/Program Files (x86)/CodeBlocks/MinGW/i686-w64-mingw32/include/crtdefs.h"
	.file 4 "C:/Program Files (x86)/CodeBlocks/MinGW/i686-w64-mingw32/include/stdlib.h"
	.file 5 "C:/Program Files (x86)/CodeBlocks/MinGW/i686-w64-mingw32/include/malloc.h"